ccopy_reg
_reconstructor
p0
(cNK_Network.Automata
NK_Automata
p1
c__builtin__
object
p2
Ntp3
Rp4
(dp5
S'stability'
p6
F0.46875
sS'stateSpan'
p7
(dp8
S'010'
p9
S'110'
p10
sS'011'
p11
S'001'
p12
sS'001'
p13
S'100'
p14
sS'000'
p15
S'000'
p16
sS'111'
p17
S'100'
p18
sS'110'
p19
S'010'
p20
sS'100'
p21
S'011'
p22
sS'101'
p23
S'111'
p24
ssS'attractorDict'
p25
(dp26
I1
(lp27
I1
aI0
asI2
(lp28
I3
aI2
asI3
(lp29
I2
aI0
assS'K'
p30
I3
sS'ordinalNumber'
p31
I-1
sS'N'
p32
I3
sS'basinAmount'
p33
I3
sS'functionsList'
p34
(lp35
g0
(cNK_Network.BoolFunction
BoolFunction
p36
g2
Ntp37
Rp38
(dp39
S'valuesString'
p40
S'00101101'
p41
sg30
I3
sbag0
(g36
g2
Ntp42
Rp43
(dp44
g40
S'00101110'
p45
sg30
I3
sbag0
(g36
g2
Ntp46
Rp47
(dp48
g40
S'01010010'
p49
sg30
I3
sbasS'expectedReturnTime'
p50
F1.5
sS'stateList'
p51
(lp52
g0
(cNK_Network.State
State
p53
g2
Ntp54
Rp55
(dp56
S'firstAttractorStateNumber'
p57
NsS'weight'
p58
I0
sS'inBasin'
p59
I00
sS'basinNumber'
p60
I1
sS'inAttractor'
p61
I01
sS'stateNumber'
p62
I0
sS'dimension'
p63
I3
sbag0
(g53
g2
Ntp64
Rp65
(dp66
g57
Nsg58
I0
sg59
I00
sg60
I2
sg61
I01
sg62
I1
sg63
I3
sbag0
(g53
g2
Ntp67
Rp68
(dp69
g57
Nsg58
I0
sg59
I00
sg60
I3
sg61
I01
sg62
I2
sg63
I3
sbag0
(g53
g2
Ntp70
Rp71
(dp72
g57
Nsg58
I0
sg59
I00
sg60
I2
sg61
I01
sg62
I3
sg63
I3
sbag0
(g53
g2
Ntp73
Rp74
(dp75
g57
Nsg58
I2
sg59
I00
sg60
I2
sg61
I01
sg62
I4
sg63
I3
sbag0
(g53
g2
Ntp76
Rp77
(dp78
g57
I4
sg58
I0
sg59
I01
sg60
I2
sg61
I00
sg62
I5
sg63
I3
sbag0
(g53
g2
Ntp79
Rp80
(dp81
g57
Nsg58
I0
sg59
I00
sg60
I3
sg61
I01
sg62
I6
sg63
I3
sbag0
(g53
g2
Ntp82
Rp83
(dp84
g57
I4
sg58
I0
sg59
I01
sg60
I2
sg61
I00
sg62
I7
sg63
I3
sbasS'linksList'
p85
(lp86
(lp87
I2
aI1
aI0
aa(lp88
I0
aI1
aI2
aa(lp89
I1
aI2
aI0
aasb.