ccopy_reg
_reconstructor
p0
(cNK_Network.Automata
NK_Automata
p1
c__builtin__
object
p2
Ntp3
Rp4
(dp5
S'stability'
p6
F0.375
sS'stateSpan'
p7
(dp8
I0
I5
sI1
I2
sI2
I2
sI3
I2
sI4
I6
sI5
I0
sI6
I4
sI7
I2
ssS'attractorDict'
p9
(dp10
I1
(lp11
I2
aI0
asI2
(lp12
I1
aI3
asI3
(lp13
I2
aI0
assS'K'
p14
I3
sS'ordinalNumber'
p15
I-1
sS'N'
p16
I3
sS'basinAmount'
p17
I3
sS'functionsList'
p18
(lp19
g0
(cNK_Network.BoolFunction
BoolFunction
p20
g2
Ntp21
Rp22
(dp23
S'valuesString'
p24
S'10001100'
p25
sg14
I3
sbag0
(g20
g2
Ntp26
Rp27
(dp28
g24
S'01111001'
p29
sg14
I3
sbag0
(g20
g2
Ntp30
Rp31
(dp32
g24
S'10000000'
p33
sg14
I3
sbasS'expectedReturnTime'
p34
F1.0
sS'stateList'
p35
(lp36
g0
(cNK_Network.State
State
p37
g2
Ntp38
Rp39
(dp40
S'firstAttractorStateNumber'
p41
NsS'weight'
p42
I0
sS'inBasin'
p43
I00
sS'basinNumber'
p44
I1
sS'inAttractor'
p45
I01
sS'stateNumber'
p46
I0
sS'dimension'
p47
I3
sbag0
(g37
g2
Ntp48
Rp49
(dp50
g41
I2
sg42
I0
sg43
I01
sg44
I2
sg45
I00
sg46
I1
sg47
I3
sbag0
(g37
g2
Ntp51
Rp52
(dp53
g41
Nsg42
I3
sg43
I00
sg44
I2
sg45
I01
sg46
I2
sg47
I3
sbag0
(g37
g2
Ntp54
Rp55
(dp56
g41
I2
sg42
I0
sg43
I01
sg44
I2
sg45
I00
sg46
I3
sg47
I3
sbag0
(g37
g2
Ntp57
Rp58
(dp59
g41
Nsg42
I0
sg43
I00
sg44
I3
sg45
I01
sg46
I4
sg47
I3
sbag0
(g37
g2
Ntp60
Rp61
(dp62
g41
Nsg42
I0
sg43
I00
sg44
I1
sg45
I01
sg46
I5
sg47
I3
sbag0
(g37
g2
Ntp63
Rp64
(dp65
g41
Nsg42
I0
sg43
I00
sg44
I3
sg45
I01
sg46
I6
sg47
I3
sbag0
(g37
g2
Ntp66
Rp67
(dp68
g41
I2
sg42
I0
sg43
I01
sg44
I2
sg45
I00
sg46
I7
sg47
I3
sbasS'linksList'
p69
(lp70
(lp71
I0
aI2
aI1
aa(lp72
I0
aI2
aI1
aa(lp73
I0
aI2
aI1
aasb.