ccopy_reg
_reconstructor
p0
(cNK_Network.Automata
NK_Automata
p1
c__builtin__
object
p2
Ntp3
Rp4
(dp5
S'stability'
p6
F0.39536285400390625
sS'stateSpan'
p7
(dp8
I0
I388
sI1
I154
sI2
I78
sI3
I347
sI4
I366
sI5
I386
sI6
I217
sI7
I375
sI8
I114
sI9
I38
sI10
I504
sI11
I2
sI12
I110
sI13
I469
sI14
I270
sI15
I421
sI16
I267
sI17
I374
sI18
I308
sI19
I326
sI20
I468
sI21
I376
sI22
I495
sI23
I341
sI24
I425
sI25
I511
sI26
I22
sI27
I433
sI28
I412
sI29
I249
sI30
I376
sI31
I86
sI32
I184
sI33
I197
sI34
I294
sI35
I254
sI36
I102
sI37
I467
sI38
I13
sI39
I127
sI40
I247
sI41
I216
sI42
I32
sI43
I434
sI44
I150
sI45
I360
sI46
I294
sI47
I234
sI48
I473
sI49
I479
sI50
I211
sI51
I491
sI52
I170
sI53
I171
sI54
I34
sI55
I245
sI56
I227
sI57
I431
sI58
I352
sI59
I299
sI60
I258
sI61
I295
sI62
I258
sI63
I147
sI64
I474
sI65
I122
sI66
I317
sI67
I215
sI68
I52
sI69
I406
sI70
I382
sI71
I385
sI72
I8
sI73
I350
sI74
I369
sI75
I318
sI76
I148
sI77
I493
sI78
I466
sI79
I66
sI80
I488
sI81
I488
sI82
I221
sI83
I43
sI84
I4
sI85
I312
sI86
I340
sI87
I427
sI88
I393
sI89
I290
sI90
I59
sI91
I391
sI92
I115
sI93
I342
sI94
I348
sI95
I364
sI96
I136
sI97
I456
sI98
I414
sI99
I264
sI100
I65
sI101
I368
sI102
I41
sI103
I132
sI104
I48
sI105
I383
sI106
I79
sI107
I480
sI108
I209
sI109
I388
sI110
I20
sI111
I448
sI112
I406
sI113
I495
sI114
I470
sI115
I195
sI116
I482
sI117
I406
sI118
I58
sI119
I63
sI120
I76
sI121
I98
sI122
I491
sI123
I291
sI124
I168
sI125
I482
sI126
I353
sI127
I126
sI128
I493
sI129
I290
sI130
I245
sI131
I42
sI132
I407
sI133
I32
sI134
I215
sI135
I392
sI136
I365
sI137
I19
sI138
I113
sI139
I287
sI140
I183
sI141
I392
sI142
I125
sI143
I276
sI144
I89
sI145
I462
sI146
I200
sI147
I250
sI148
I82
sI149
I501
sI150
I393
sI151
I91
sI152
I385
sI153
I398
sI154
I369
sI155
I231
sI156
I32
sI157
I274
sI158
I233
sI159
I510
sI160
I21
sI161
I492
sI162
I245
sI163
I53
sI164
I24
sI165
I192
sI166
I394
sI167
I119
sI168
I325
sI169
I148
sI170
I144
sI171
I101
sI172
I145
sI173
I2
sI174
I14
sI175
I46
sI176
I140
sI177
I130
sI178
I329
sI179
I134
sI180
I464
sI181
I318
sI182
I227
sI183
I192
sI184
I258
sI185
I221
sI186
I173
sI187
I378
sI188
I162
sI189
I169
sI190
I297
sI191
I255
sI192
I221
sI193
I202
sI194
I510
sI195
I308
sI196
I106
sI197
I250
sI198
I369
sI199
I319
sI200
I336
sI201
I63
sI202
I265
sI203
I438
sI204
I448
sI205
I503
sI206
I257
sI207
I254
sI208
I366
sI209
I484
sI210
I481
sI211
I86
sI212
I151
sI213
I488
sI214
I105
sI215
I269
sI216
I407
sI217
I69
sI218
I412
sI219
I118
sI220
I388
sI221
I369
sI222
I433
sI223
I150
sI224
I418
sI225
I207
sI226
I51
sI227
I355
sI228
I213
sI229
I157
sI230
I122
sI231
I451
sI232
I381
sI233
I280
sI234
I470
sI235
I293
sI236
I274
sI237
I135
sI238
I228
sI239
I50
sI240
I169
sI241
I14
sI242
I231
sI243
I142
sI244
I273
sI245
I217
sI246
I197
sI247
I74
sI248
I207
sI249
I94
sI250
I264
sI251
I450
sI252
I473
sI253
I159
sI254
I451
sI255
I454
sI256
I413
sI257
I379
sI258
I499
sI259
I384
sI260
I241
sI261
I360
sI262
I75
sI263
I351
sI264
I161
sI265
I409
sI266
I159
sI267
I510
sI268
I105
sI269
I342
sI270
I217
sI271
I107
sI272
I200
sI273
I411
sI274
I14
sI275
I117
sI276
I103
sI277
I480
sI278
I14
sI279
I313
sI280
I34
sI281
I105
sI282
I265
sI283
I473
sI284
I432
sI285
I76
sI286
I407
sI287
I89
sI288
I379
sI289
I287
sI290
I509
sI291
I11
sI292
I382
sI293
I23
sI294
I429
sI295
I302
sI296
I261
sI297
I147
sI298
I211
sI299
I360
sI300
I169
sI301
I4
sI302
I484
sI303
I91
sI304
I120
sI305
I441
sI306
I504
sI307
I57
sI308
I183
sI309
I113
sI310
I27
sI311
I324
sI312
I353
sI313
I368
sI314
I271
sI315
I0
sI316
I118
sI317
I354
sI318
I24
sI319
I163
sI320
I339
sI321
I310
sI322
I409
sI323
I68
sI324
I382
sI325
I437
sI326
I466
sI327
I457
sI328
I273
sI329
I131
sI330
I485
sI331
I193
sI332
I408
sI333
I116
sI334
I460
sI335
I370
sI336
I45
sI337
I97
sI338
I373
sI339
I364
sI340
I421
sI341
I101
sI342
I500
sI343
I402
sI344
I251
sI345
I145
sI346
I428
sI347
I476
sI348
I214
sI349
I483
sI350
I84
sI351
I73
sI352
I8
sI353
I180
sI354
I263
sI355
I197
sI356
I168
sI357
I372
sI358
I230
sI359
I36
sI360
I67
sI361
I129
sI362
I160
sI363
I66
sI364
I285
sI365
I64
sI366
I67
sI367
I215
sI368
I164
sI369
I14
sI370
I47
sI371
I23
sI372
I483
sI373
I53
sI374
I417
sI375
I30
sI376
I330
sI377
I247
sI378
I461
sI379
I471
sI380
I191
sI381
I475
sI382
I422
sI383
I353
sI384
I511
sI385
I438
sI386
I184
sI387
I490
sI388
I493
sI389
I214
sI390
I432
sI391
I240
sI392
I445
sI393
I117
sI394
I84
sI395
I224
sI396
I164
sI397
I62
sI398
I415
sI399
I265
sI400
I487
sI401
I390
sI402
I323
sI403
I491
sI404
I34
sI405
I89
sI406
I165
sI407
I341
sI408
I466
sI409
I492
sI410
I410
sI411
I368
sI412
I307
sI413
I461
sI414
I454
sI415
I115
sI416
I371
sI417
I316
sI418
I359
sI419
I220
sI420
I375
sI421
I437
sI422
I271
sI423
I468
sI424
I65
sI425
I146
sI426
I16
sI427
I503
sI428
I406
sI429
I429
sI430
I418
sI431
I125
sI432
I283
sI433
I33
sI434
I139
sI435
I229
sI436
I216
sI437
I356
sI438
I304
sI439
I310
sI440
I421
sI441
I386
sI442
I0
sI443
I116
sI444
I129
sI445
I148
sI446
I153
sI447
I474
sI448
I278
sI449
I110
sI450
I191
sI451
I21
sI452
I358
sI453
I109
sI454
I374
sI455
I217
sI456
I111
sI457
I152
sI458
I9
sI459
I224
sI460
I219
sI461
I213
sI462
I235
sI463
I175
sI464
I287
sI465
I308
sI466
I491
sI467
I225
sI468
I173
sI469
I357
sI470
I261
sI471
I30
sI472
I135
sI473
I464
sI474
I0
sI475
I433
sI476
I0
sI477
I343
sI478
I59
sI479
I192
sI480
I505
sI481
I89
sI482
I443
sI483
I184
sI484
I133
sI485
I113
sI486
I131
sI487
I222
sI488
I159
sI489
I116
sI490
I452
sI491
I278
sI492
I497
sI493
I198
sI494
I299
sI495
I158
sI496
I53
sI497
I331
sI498
I268
sI499
I127
sI500
I284
sI501
I227
sI502
I265
sI503
I356
sI504
I405
sI505
I326
sI506
I102
sI507
I183
sI508
I384
sI509
I30
sI510
I484
sI511
I159
ssS'attractorDict'
p9
(dp10
I1
(lp11
I9
aI153
asI2
(lp12
I1
aI273
asI3
(lp13
I4
aI15
asI4
(lp14
I7
aI35
asI5
(lp15
I3
aI11
asI6
(lp16
I1
aI0
assS'K'
p17
I9
sS'ordinalNumber'
p18
I-1
sS'N'
p19
I9
sS'basinAmount'
p20
I6
sS'functionsList'
p21
(lp22
g0
(cNK_Network.BoolFunction
BoolFunction
p23
g2
Ntp24
Rp25
(dp26
S'valuesString'
p27
S'11100000000000001010010011011101010111001111001001010010010101001101101001011001111111101000001111011110010100100011111000100111001101110111011110001000001101001011010001101101011101011110010011111001101000001000101000000010101100101001100010000010001011001110110111100010010000111101100110110100001111110110100011010111000100010010110011001001101011010101100111101101110101111010000111111101110110111111001010110000101110001101110000010000001011011010100000011011110101101111110001110010110001011010001111000010'
p28
sg17
I9
sbag0
(g23
g2
Ntp29
Rp30
(dp31
g27
S'11010110011100001101011111001001100101100101001101001111010111101010101001011100000010011010011010111110101010001011101101011100100010110101100110000011110011100001100110010011100110010011010110001100100110111101101101111000110110010110100110000000010010110100101110011001111100001101111110100110001000000110100111000010001111000101000000111111100110011000100000101011110100110100101100110101011101000011111000010010111000011100110010111000011100110110111101000101110100110110101100101011101100001011111011010011'
p32
sg17
I9
sbag0
(g23
g2
Ntp33
Rp34
(dp35
g27
S'00010111100111101101101010110010011011000001010111111001101101011011011110000100111100110101001010011100001110101010000110111010111100110010011100001110011110011001000001001101100101100111001101100101100011101100000011110111011100101011011111101000111110111101001010001001010101100000000011001000011110001011110100010000110111001101001110010111110100010111101110110011001100100101001111110010100111011011100110110100001010111001001110110011101110101101011000011001110011110010110101010001001011001010001110010100'
p36
sg17
I9
sbag0
(g23
g2
Ntp37
Rp38
(dp39
g27
S'00100101011010110110110100110110100010100100101101110111100001101000001110100011001001001110001011000100010111100101100011100100001101001010011110101111011101011111111100110110110011110110000011100111111001100111100001010011111011001001110001111111100110011110000010111100110001100101101110110100011100010100101110010110110010101101010001001100111111100001010010010110110101001011011011100110000011000111000010110011111100000000001100101100100110100101000000001001010001101011000111000110101001110110000001100100'
p40
sg17
I9
sbag0
(g23
g2
Ntp41
Rp42
(dp43
g27
S'00100100110001100110111110100101011011100111001110010011100000101111100111111111001000011110111011000111100100010010001110101101111010110000011100000110100001111111110111000100100110001000101011101010011100110101000001000110110111010101000110001011001100101001011010111100001010110001000011010101011000001110101100010011011100110011010001001100001010011110110011010011011110110001110101111001111111000100101100010101101110010100100111011101000000101001111101011100101110010110101100000010000100110011110000110001'
p44
sg17
I9
sbag0
(g23
g2
Ntp45
Rp46
(dp47
g27
S'01111001100110111000110101000011110100010110110001101010010110000110100001010010110011110110000100000001110101010000001110011011111111101110010000101001011101111001100011111001000011100011010111000111101010000000010010000110011111011011000001010000000101001110011011000011001011001001110011011101111011101001111000001000001011011101110010001010011111100000010000001000100001010010101101011011001001001001000000101011101001110111001110010001000001100110011000100100101010110000011001100100000000001100001001010011'
p48
sg17
I9
sbag0
(g23
g2
Ntp49
Rp50
(dp51
g27
S'11000011010111101101010100001100010010111100011101000101100100001110001011001101001000101100010100100101000101001100100000100101010100010010011101111101001110100001110101111001010100000101011111101101101100010110111010111011000111111100010010100010011101111110000110000001011001001110110111101000100000100100111101101101011010101000111000111001110011111100111111000101011100001000010010111000010001101111111101011010100111100000110100101101101001011010010100011010011100011000111100100111110000111010010000111101'
p52
sg17
I9
sbag0
(g23
g2
Ntp53
Rp54
(dp55
g27
S'00101001010110111001100000011001111110001111010010100100101001101101011100011000011010010001010110101100111100101100011010100011010011110101010010101011001001100110111000100010011000110101100010100011010111100101101000001100111011000010100110101111011010111100010001111110000100110111010011001000110010001110001110001001000011001101010000101000000001011010001100101001101011001010111000100011100000000101000101101000001100101011000110110011001111111111011011101100101001011001011000110011101111100111011001111111'
p56
sg17
I9
sbag0
(g23
g2
Ntp57
Rp58
(dp59
g27
S'00010001000010010010000001110100001100001000010000111110101000001001110110101001001001000000000100011011111110110011100010111010111111111011111010101010001011011000110110111100011100101000001101010110000110111100001011110100111011101011010101100111110001111110101110111100101110110100100000001110011100110001010001110100100111100111011001110011011101110000011000001000101101000100111010011101111111001000011111110101000110000100001001010111110010101111010011101100011110010001101000110001111100011110111001000001'
p60
sg17
I9
sbasS'expectedReturnTime'
p61
F16.55441478439425
sS'stateList'
p62
(lp63
g0
(cNK_Network.State
State
p64
g2
Ntp65
Rp66
(dp67
S'firstAttractorStateNumber'
p68
I369
sS'weight'
p69
I0
sS'inBasin'
p70
I01
sS'basinNumber'
p71
I1
sS'inAttractor'
p72
I00
sS'stateNumber'
p73
I0
sS'dimension'
p74
I9
sbag0
(g64
g2
Ntp75
Rp76
(dp77
g68
I369
sg69
I0
sg70
I01
sg71
I1
sg72
I00
sg73
I1
sg74
I9
sbag0
(g64
g2
Ntp78
Rp79
(dp80
g68
I14
sg69
I0
sg70
I01
sg71
I1
sg72
I00
sg73
I2
sg74
I9
sbag0
(g64
g2
Ntp81
Rp82
(dp83
g68
I369
sg69
I0
sg70
I01
sg71
I1
sg72
I00
sg73
I3
sg74
I9
sbag0
(g64
g2
Ntp84
Rp85
(dp86
g68
I429
sg69
I0
sg70
I01
sg71
I2
sg72
I00
sg73
I4
sg74
I9
sbag0
(g64
g2
Ntp87
Rp88
(dp89
g68
I429
sg69
I0
sg70
I01
sg71
I2
sg72
I00
sg73
I5
sg74
I9
sbag0
(g64
g2
Ntp90
Rp91
(dp92
g68
I217
sg69
I0
sg70
I01
sg71
I1
sg72
I00
sg73
I6
sg74
I9
sbag0
(g64
g2
Ntp93
Rp94
(dp95
g68
I429
sg69
I0
sg70
I01
sg71
I2
sg72
I00
sg73
I7
sg74
I9
sbag0
(g64
g2
Ntp96
Rp97
(dp98
g68
I429
sg69
I0
sg70
I01
sg71
I2
sg72
I00
sg73
I8
sg74
I9
sbag0
(g64
g2
Ntp99
Rp100
(dp101
g68
I429
sg69
I0
sg70
I01
sg71
I2
sg72
I00
sg73
I9
sg74
I9
sbag0
(g64
g2
Ntp102
Rp103
(dp104
g68
I429
sg69
I0
sg70
I01
sg71
I2
sg72
I00
sg73
I10
sg74
I9
sbag0
(g64
g2
Ntp105
Rp106
(dp107
g68
I14
sg69
I0
sg70
I01
sg71
I1
sg72
I00
sg73
I11
sg74
I9
sbag0
(g64
g2
Ntp108
Rp109
(dp110
g68
I14
sg69
I0
sg70
I01
sg71
I1
sg72
I00
sg73
I12
sg74
I9
sbag0
(g64
g2
Ntp111
Rp112
(dp113
g68
I429
sg69
I0
sg70
I01
sg71
I2
sg72
I00
sg73
I13
sg74
I9
sbag0
(g64
g2
Ntp114
Rp115
(dp116
g68
Nsg69
I59
sg70
I00
sg71
I1
sg72
I01
sg73
I14
sg74
I9
sbag0
(g64
g2
Ntp117
Rp118
(dp119
g68
I437
sg69
I0
sg70
I01
sg71
I3
sg72
I00
sg73
I15
sg74
I9
sbag0
(g64
g2
Ntp120
Rp121
(dp122
g68
I429
sg69
I0
sg70
I01
sg71
I2
sg72
I00
sg73
I16
sg74
I9
sbag0
(g64
g2
Ntp123
Rp124
(dp125
g68
I429
sg69
I0
sg70
I01
sg71
I2
sg72
I00
sg73
I17
sg74
I9
sbag0
(g64
g2
Ntp126
Rp127
(dp128
g68
I192
sg69
I0
sg70
I01
sg71
I1
sg72
I00
sg73
I18
sg74
I9
sbag0
(g64
g2
Ntp129
Rp130
(dp131
g68
I14
sg69
I0
sg70
I01
sg71
I1
sg72
I00
sg73
I19
sg74
I9
sbag0
(g64
g2
Ntp132
Rp133
(dp134
g68
I14
sg69
I0
sg70
I01
sg71
I1
sg72
I00
sg73
I20
sg74
I9
sbag0
(g64
g2
Ntp135
Rp136
(dp137
g68
I429
sg69
I0
sg70
I01
sg71
I2
sg72
I00
sg73
I21
sg74
I9
sbag0
(g64
g2
Ntp138
Rp139
(dp140
g68
I429
sg69
I0
sg70
I01
sg71
I2
sg72
I00
sg73
I22
sg74
I9
sbag0
(g64
g2
Ntp141
Rp142
(dp143
g68
I429
sg69
I0
sg70
I01
sg71
I2
sg72
I00
sg73
I23
sg74
I9
sbag0
(g64
g2
Ntp144
Rp145
(dp146
g68
I429
sg69
I0
sg70
I01
sg71
I2
sg72
I00
sg73
I24
sg74
I9
sbag0
(g64
g2
Ntp147
Rp148
(dp149
g68
I429
sg69
I0
sg70
I01
sg71
I2
sg72
I00
sg73
I25
sg74
I9
sbag0
(g64
g2
Ntp150
Rp151
(dp152
g68
I429
sg69
I0
sg70
I01
sg71
I2
sg72
I00
sg73
I26
sg74
I9
sbag0
(g64
g2
Ntp153
Rp154
(dp155
g68
I492
sg69
I0
sg70
I01
sg71
I4
sg72
I00
sg73
I27
sg74
I9
sbag0
(g64
g2
Ntp156
Rp157
(dp158
g68
I482
sg69
I0
sg70
I01
sg71
I5
sg72
I00
sg73
I28
sg74
I9
sbag0
(g64
g2
Ntp159
Rp160
(dp161
g68
I429
sg69
I0
sg70
I01
sg71
I2
sg72
I00
sg73
I29
sg74
I9
sbag0
(g64
g2
Ntp162
Rp163
(dp164
g68
I429
sg69
I0
sg70
I01
sg71
I2
sg72
I00
sg73
I30
sg74
I9
sbag0
(g64
g2
Ntp165
Rp166
(dp167
g68
I437
sg69
I0
sg70
I01
sg71
I3
sg72
I00
sg73
I31
sg74
I9
sbag0
(g64
g2
Ntp168
Rp169
(dp170
g68
I429
sg69
I0
sg70
I01
sg71
I2
sg72
I00
sg73
I32
sg74
I9
sbag0
(g64
g2
Ntp171
Rp172
(dp173
g68
I492
sg69
I0
sg70
I01
sg71
I4
sg72
I00
sg73
I33
sg74
I9
sbag0
(g64
g2
Ntp174
Rp175
(dp176
g68
I429
sg69
I0
sg70
I01
sg71
I2
sg72
I00
sg73
I34
sg74
I9
sbag0
(g64
g2
Ntp177
Rp178
(dp179
g68
I429
sg69
I0
sg70
I01
sg71
I2
sg72
I00
sg73
I35
sg74
I9
sbag0
(g64
g2
Ntp180
Rp181
(dp182
g68
I429
sg69
I0
sg70
I01
sg71
I2
sg72
I00
sg73
I36
sg74
I9
sbag0
(g64
g2
Ntp183
Rp184
(dp185
g68
I429
sg69
I0
sg70
I01
sg71
I2
sg72
I00
sg73
I37
sg74
I9
sbag0
(g64
g2
Ntp186
Rp187
(dp188
g68
I429
sg69
I0
sg70
I01
sg71
I2
sg72
I00
sg73
I38
sg74
I9
sbag0
(g64
g2
Ntp189
Rp190
(dp191
g68
I429
sg69
I0
sg70
I01
sg71
I2
sg72
I00
sg73
I39
sg74
I9
sbag0
(g64
g2
Ntp192
Rp193
(dp194
g68
I369
sg69
I0
sg70
I01
sg71
I1
sg72
I00
sg73
I40
sg74
I9
sbag0
(g64
g2
Ntp195
Rp196
(dp197
g68
I429
sg69
I0
sg70
I01
sg71
I2
sg72
I00
sg73
I41
sg74
I9
sbag0
(g64
g2
Ntp198
Rp199
(dp200
g68
I429
sg69
I0
sg70
I01
sg71
I2
sg72
I00
sg73
I42
sg74
I9
sbag0
(g64
g2
Ntp201
Rp202
(dp203
g68
I429
sg69
I0
sg70
I01
sg71
I2
sg72
I00
sg73
I43
sg74
I9
sbag0
(g64
g2
Ntp204
Rp205
(dp206
g68
I406
sg69
I0
sg70
I01
sg71
I1
sg72
I00
sg73
I44
sg74
I9
sbag0
(g64
g2
Ntp207
Rp208
(dp209
g68
I429
sg69
I0
sg70
I01
sg71
I2
sg72
I00
sg73
I45
sg74
I9
sbag0
(g64
g2
Ntp210
Rp211
(dp212
g68
I429
sg69
I0
sg70
I01
sg71
I2
sg72
I00
sg73
I46
sg74
I9
sbag0
(g64
g2
Ntp213
Rp214
(dp215
g68
I429
sg69
I0
sg70
I01
sg71
I2
sg72
I00
sg73
I47
sg74
I9
sbag0
(g64
g2
Ntp216
Rp217
(dp218
g68
I429
sg69
I0
sg70
I01
sg71
I2
sg72
I00
sg73
I48
sg74
I9
sbag0
(g64
g2
Ntp219
Rp220
(dp221
g68
I192
sg69
I0
sg70
I01
sg71
I1
sg72
I00
sg73
I49
sg74
I9
sbag0
(g64
g2
Ntp222
Rp223
(dp224
g68
I437
sg69
I0
sg70
I01
sg71
I3
sg72
I00
sg73
I50
sg74
I9
sbag0
(g64
g2
Ntp225
Rp226
(dp227
g68
I14
sg69
I0
sg70
I01
sg71
I1
sg72
I00
sg73
I51
sg74
I9
sbag0
(g64
g2
Ntp228
Rp229
(dp230
g68
I429
sg69
I0
sg70
I01
sg71
I2
sg72
I00
sg73
I52
sg74
I9
sbag0
(g64
g2
Ntp231
Rp232
(dp233
g68
I429
sg69
I0
sg70
I01
sg71
I2
sg72
I00
sg73
I53
sg74
I9
sbag0
(g64
g2
Ntp234
Rp235
(dp236
g68
I429
sg69
I0
sg70
I01
sg71
I2
sg72
I00
sg73
I54
sg74
I9
sbag0
(g64
g2
Ntp237
Rp238
(dp239
g68
I217
sg69
I0
sg70
I01
sg71
I1
sg72
I00
sg73
I55
sg74
I9
sbag0
(g64
g2
Ntp240
Rp241
(dp242
g68
I492
sg69
I0
sg70
I01
sg71
I4
sg72
I00
sg73
I56
sg74
I9
sbag0
(g64
g2
Ntp243
Rp244
(dp245
g68
I482
sg69
I0
sg70
I01
sg71
I5
sg72
I00
sg73
I57
sg74
I9
sbag0
(g64
g2
Ntp246
Rp247
(dp248
g68
I429
sg69
I0
sg70
I01
sg71
I2
sg72
I00
sg73
I58
sg74
I9
sbag0
(g64
g2
Ntp249
Rp250
(dp251
g68
I429
sg69
I0
sg70
I01
sg71
I2
sg72
I00
sg73
I59
sg74
I9
sbag0
(g64
g2
Ntp252
Rp253
(dp254
g68
I429
sg69
I0
sg70
I01
sg71
I2
sg72
I00
sg73
I60
sg74
I9
sbag0
(g64
g2
Ntp255
Rp256
(dp257
g68
I429
sg69
I0
sg70
I01
sg71
I2
sg72
I00
sg73
I61
sg74
I9
sbag0
(g64
g2
Ntp258
Rp259
(dp260
g68
I429
sg69
I0
sg70
I01
sg71
I2
sg72
I00
sg73
I62
sg74
I9
sbag0
(g64
g2
Ntp261
Rp262
(dp263
g68
I492
sg69
I0
sg70
I01
sg71
I4
sg72
I00
sg73
I63
sg74
I9
sbag0
(g64
g2
Ntp264
Rp265
(dp266
g68
I369
sg69
I0
sg70
I01
sg71
I1
sg72
I00
sg73
I64
sg74
I9
sbag0
(g64
g2
Ntp267
Rp268
(dp269
g68
I14
sg69
I0
sg70
I01
sg71
I1
sg72
I00
sg73
I65
sg74
I9
sbag0
(g64
g2
Ntp270
Rp271
(dp272
g68
I429
sg69
I0
sg70
I01
sg71
I2
sg72
I00
sg73
I66
sg74
I9
sbag0
(g64
g2
Ntp273
Rp274
(dp275
g68
I429
sg69
I0
sg70
I01
sg71
I2
sg72
I00
sg73
I67
sg74
I9
sbag0
(g64
g2
Ntp276
Rp277
(dp278
g68
I429
sg69
I0
sg70
I01
sg71
I2
sg72
I00
sg73
I68
sg74
I9
sbag0
(g64
g2
Ntp279
Rp280
(dp281
g68
Nsg69
I0
sg70
I00
sg71
I1
sg72
I01
sg73
I69
sg74
I9
sbag0
(g64
g2
Ntp282
Rp283
(dp284
g68
I14
sg69
I0
sg70
I01
sg71
I1
sg72
I00
sg73
I70
sg74
I9
sbag0
(g64
g2
Ntp285
Rp286
(dp287
g68
I221
sg69
I0
sg70
I01
sg71
I1
sg72
I00
sg73
I71
sg74
I9
sbag0
(g64
g2
Ntp288
Rp289
(dp290
g68
I429
sg69
I0
sg70
I01
sg71
I2
sg72
I00
sg73
I72
sg74
I9
sbag0
(g64
g2
Ntp291
Rp292
(dp293
g68
I429
sg69
I0
sg70
I01
sg71
I2
sg72
I00
sg73
I73
sg74
I9
sbag0
(g64
g2
Ntp294
Rp295
(dp296
g68
I369
sg69
I0
sg70
I01
sg71
I1
sg72
I00
sg73
I74
sg74
I9
sbag0
(g64
g2
Ntp297
Rp298
(dp299
g68
I429
sg69
I0
sg70
I01
sg71
I2
sg72
I00
sg73
I75
sg74
I9
sbag0
(g64
g2
Ntp300
Rp301
(dp302
g68
I221
sg69
I0
sg70
I01
sg71
I1
sg72
I00
sg73
I76
sg74
I9
sbag0
(g64
g2
Ntp303
Rp304
(dp305
g68
I369
sg69
I0
sg70
I01
sg71
I1
sg72
I00
sg73
I77
sg74
I9
sbag0
(g64
g2
Ntp306
Rp307
(dp308
g68
I14
sg69
I0
sg70
I01
sg71
I1
sg72
I00
sg73
I78
sg74
I9
sbag0
(g64
g2
Ntp309
Rp310
(dp311
g68
I429
sg69
I0
sg70
I01
sg71
I2
sg72
I00
sg73
I79
sg74
I9
sbag0
(g64
g2
Ntp312
Rp313
(dp314
g68
I429
sg69
I0
sg70
I01
sg71
I2
sg72
I00
sg73
I80
sg74
I9
sbag0
(g64
g2
Ntp315
Rp316
(dp317
g68
I429
sg69
I0
sg70
I01
sg71
I2
sg72
I00
sg73
I81
sg74
I9
sbag0
(g64
g2
Ntp318
Rp319
(dp320
g68
I221
sg69
I0
sg70
I01
sg71
I1
sg72
I00
sg73
I82
sg74
I9
sbag0
(g64
g2
Ntp321
Rp322
(dp323
g68
I429
sg69
I0
sg70
I01
sg71
I2
sg72
I00
sg73
I83
sg74
I9
sbag0
(g64
g2
Ntp324
Rp325
(dp326
g68
I429
sg69
I0
sg70
I01
sg71
I2
sg72
I00
sg73
I84
sg74
I9
sbag0
(g64
g2
Ntp327
Rp328
(dp329
g68
I429
sg69
I0
sg70
I01
sg71
I2
sg72
I00
sg73
I85
sg74
I9
sbag0
(g64
g2
Ntp330
Rp331
(dp332
g68
I437
sg69
I0
sg70
I01
sg71
I3
sg72
I00
sg73
I86
sg74
I9
sbag0
(g64
g2
Ntp333
Rp334
(dp335
g68
I356
sg69
I0
sg70
I01
sg71
I3
sg72
I00
sg73
I87
sg74
I9
sbag0
(g64
g2
Ntp336
Rp337
(dp338
g68
I406
sg69
I0
sg70
I01
sg71
I1
sg72
I00
sg73
I88
sg74
I9
sbag0
(g64
g2
Ntp339
Rp340
(dp341
g68
I429
sg69
I0
sg70
I01
sg71
I2
sg72
I00
sg73
I89
sg74
I9
sbag0
(g64
g2
Ntp342
Rp343
(dp344
g68
I429
sg69
I0
sg70
I01
sg71
I2
sg72
I00
sg73
I90
sg74
I9
sbag0
(g64
g2
Ntp345
Rp346
(dp347
g68
I221
sg69
I0
sg70
I01
sg71
I1
sg72
I00
sg73
I91
sg74
I9
sbag0
(g64
g2
Ntp348
Rp349
(dp350
g68
I192
sg69
I0
sg70
I01
sg71
I1
sg72
I00
sg73
I92
sg74
I9
sbag0
(g64
g2
Ntp351
Rp352
(dp353
g68
I429
sg69
I0
sg70
I01
sg71
I2
sg72
I00
sg73
I93
sg74
I9
sbag0
(g64
g2
Ntp354
Rp355
(dp356
g68
I429
sg69
I0
sg70
I01
sg71
I2
sg72
I00
sg73
I94
sg74
I9
sbag0
(g64
g2
Ntp357
Rp358
(dp359
g68
I221
sg69
I0
sg70
I01
sg71
I1
sg72
I00
sg73
I95
sg74
I9
sbag0
(g64
g2
Ntp360
Rp361
(dp362
g68
I369
sg69
I0
sg70
I01
sg71
I1
sg72
I00
sg73
I96
sg74
I9
sbag0
(g64
g2
Ntp363
Rp364
(dp365
g68
I14
sg69
I0
sg70
I01
sg71
I1
sg72
I00
sg73
I97
sg74
I9
sbag0
(g64
g2
Ntp366
Rp367
(dp368
g68
I429
sg69
I0
sg70
I01
sg71
I2
sg72
I00
sg73
I98
sg74
I9
sbag0
(g64
g2
Ntp369
Rp370
(dp371
g68
I492
sg69
I0
sg70
I01
sg71
I4
sg72
I00
sg73
I99
sg74
I9
sbag0
(g64
g2
Ntp372
Rp373
(dp374
g68
I14
sg69
I0
sg70
I01
sg71
I1
sg72
I00
sg73
I100
sg74
I9
sbag0
(g64
g2
Ntp375
Rp376
(dp377
g68
I429
sg69
I0
sg70
I01
sg71
I2
sg72
I00
sg73
I101
sg74
I9
sbag0
(g64
g2
Ntp378
Rp379
(dp380
g68
I429
sg69
I0
sg70
I01
sg71
I2
sg72
I00
sg73
I102
sg74
I9
sbag0
(g64
g2
Ntp381
Rp382
(dp383
g68
I429
sg69
I0
sg70
I01
sg71
I2
sg72
I00
sg73
I103
sg74
I9
sbag0
(g64
g2
Ntp384
Rp385
(dp386
g68
I429
sg69
I0
sg70
I01
sg71
I2
sg72
I00
sg73
I104
sg74
I9
sbag0
(g64
g2
Ntp387
Rp388
(dp389
g68
I429
sg69
I0
sg70
I01
sg71
I2
sg72
I00
sg73
I105
sg74
I9
sbag0
(g64
g2
Ntp390
Rp391
(dp392
g68
I429
sg69
I0
sg70
I01
sg71
I2
sg72
I00
sg73
I106
sg74
I9
sbag0
(g64
g2
Ntp393
Rp394
(dp395
g68
I14
sg69
I0
sg70
I01
sg71
I1
sg72
I00
sg73
I107
sg74
I9
sbag0
(g64
g2
Ntp396
Rp397
(dp398
g68
I429
sg69
I0
sg70
I01
sg71
I2
sg72
I00
sg73
I108
sg74
I9
sbag0
(g64
g2
Ntp399
Rp400
(dp401
g68
I369
sg69
I0
sg70
I01
sg71
I1
sg72
I00
sg73
I109
sg74
I9
sbag0
(g64
g2
Ntp402
Rp403
(dp404
g68
I14
sg69
I0
sg70
I01
sg71
I1
sg72
I00
sg73
I110
sg74
I9
sbag0
(g64
g2
Ntp405
Rp406
(dp407
g68
I14
sg69
I0
sg70
I01
sg71
I1
sg72
I00
sg73
I111
sg74
I9
sbag0
(g64
g2
Ntp408
Rp409
(dp410
g68
I406
sg69
I0
sg70
I01
sg71
I1
sg72
I00
sg73
I112
sg74
I9
sbag0
(g64
g2
Ntp411
Rp412
(dp413
g68
I429
sg69
I0
sg70
I01
sg71
I2
sg72
I00
sg73
I113
sg74
I9
sbag0
(g64
g2
Ntp414
Rp415
(dp416
g68
I429
sg69
I0
sg70
I01
sg71
I2
sg72
I00
sg73
I114
sg74
I9
sbag0
(g64
g2
Ntp417
Rp418
(dp419
g68
I192
sg69
I0
sg70
I01
sg71
I1
sg72
I00
sg73
I115
sg74
I9
sbag0
(g64
g2
Ntp420
Rp421
(dp422
g68
Nsg69
I2
sg70
I00
sg71
I5
sg72
I01
sg73
I116
sg74
I9
sbag0
(g64
g2
Ntp423
Rp424
(dp425
g68
I406
sg69
I0
sg70
I01
sg71
I1
sg72
I00
sg73
I117
sg74
I9
sbag0
(g64
g2
Ntp426
Rp427
(dp428
g68
I429
sg69
I0
sg70
I01
sg71
I2
sg72
I00
sg73
I118
sg74
I9
sbag0
(g64
g2
Ntp429
Rp430
(dp431
g68
I492
sg69
I0
sg70
I01
sg71
I4
sg72
I00
sg73
I119
sg74
I9
sbag0
(g64
g2
Ntp432
Rp433
(dp434
g68
I221
sg69
I0
sg70
I01
sg71
I1
sg72
I00
sg73
I120
sg74
I9
sbag0
(g64
g2
Ntp435
Rp436
(dp437
g68
I429
sg69
I0
sg70
I01
sg71
I2
sg72
I00
sg73
I121
sg74
I9
sbag0
(g64
g2
Ntp438
Rp439
(dp440
g68
I14
sg69
I0
sg70
I01
sg71
I1
sg72
I00
sg73
I122
sg74
I9
sbag0
(g64
g2
Ntp441
Rp442
(dp443
g68
I14
sg69
I0
sg70
I01
sg71
I1
sg72
I00
sg73
I123
sg74
I9
sbag0
(g64
g2
Ntp444
Rp445
(dp446
g68
I168
sg69
I0
sg70
I01
sg71
I3
sg72
I00
sg73
I124
sg74
I9
sbag0
(g64
g2
Ntp447
Rp448
(dp449
g68
I482
sg69
I0
sg70
I01
sg71
I5
sg72
I00
sg73
I125
sg74
I9
sbag0
(g64
g2
Ntp450
Rp451
(dp452
g68
I429
sg69
I0
sg70
I01
sg71
I2
sg72
I00
sg73
I126
sg74
I9
sbag0
(g64
g2
Ntp453
Rp454
(dp455
g68
I429
sg69
I0
sg70
I01
sg71
I2
sg72
I00
sg73
I127
sg74
I9
sbag0
(g64
g2
Ntp456
Rp457
(dp458
g68
I369
sg69
I0
sg70
I01
sg71
I1
sg72
I00
sg73
I128
sg74
I9
sbag0
(g64
g2
Ntp459
Rp460
(dp461
g68
I429
sg69
I0
sg70
I01
sg71
I2
sg72
I00
sg73
I129
sg74
I9
sbag0
(g64
g2
Ntp462
Rp463
(dp464
g68
I217
sg69
I0
sg70
I01
sg71
I1
sg72
I00
sg73
I130
sg74
I9
sbag0
(g64
g2
Ntp465
Rp466
(dp467
g68
I429
sg69
I0
sg70
I01
sg71
I2
sg72
I00
sg73
I131
sg74
I9
sbag0
(g64
g2
Ntp468
Rp469
(dp470
g68
I429
sg69
I0
sg70
I01
sg71
I2
sg72
I00
sg73
I132
sg74
I9
sbag0
(g64
g2
Ntp471
Rp472
(dp473
g68
I429
sg69
I0
sg70
I01
sg71
I2
sg72
I00
sg73
I133
sg74
I9
sbag0
(g64
g2
Ntp474
Rp475
(dp476
g68
I429
sg69
I0
sg70
I01
sg71
I2
sg72
I00
sg73
I134
sg74
I9
sbag0
(g64
g2
Ntp477
Rp478
(dp479
g68
I221
sg69
I0
sg70
I01
sg71
I1
sg72
I00
sg73
I135
sg74
I9
sbag0
(g64
g2
Ntp480
Rp481
(dp482
g68
I369
sg69
I0
sg70
I01
sg71
I1
sg72
I00
sg73
I136
sg74
I9
sbag0
(g64
g2
Ntp483
Rp484
(dp485
g68
I14
sg69
I0
sg70
I01
sg71
I1
sg72
I00
sg73
I137
sg74
I9
sbag0
(g64
g2
Ntp486
Rp487
(dp488
g68
I429
sg69
I0
sg70
I01
sg71
I2
sg72
I00
sg73
I138
sg74
I9
sbag0
(g64
g2
Ntp489
Rp490
(dp491
g68
I429
sg69
I0
sg70
I01
sg71
I2
sg72
I00
sg73
I139
sg74
I9
sbag0
(g64
g2
Ntp492
Rp493
(dp494
g68
I192
sg69
I0
sg70
I01
sg71
I1
sg72
I00
sg73
I140
sg74
I9
sbag0
(g64
g2
Ntp495
Rp496
(dp497
g68
I221
sg69
I0
sg70
I01
sg71
I1
sg72
I00
sg73
I141
sg74
I9
sbag0
(g64
g2
Ntp498
Rp499
(dp500
g68
I482
sg69
I0
sg70
I01
sg71
I5
sg72
I00
sg73
I142
sg74
I9
sbag0
(g64
g2
Ntp501
Rp502
(dp503
g68
I429
sg69
I0
sg70
I01
sg71
I2
sg72
I00
sg73
I143
sg74
I9
sbag0
(g64
g2
Ntp504
Rp505
(dp506
g68
I429
sg69
I0
sg70
I01
sg71
I2
sg72
I00
sg73
I144
sg74
I9
sbag0
(g64
g2
Ntp507
Rp508
(dp509
g68
I429
sg69
I0
sg70
I01
sg71
I2
sg72
I00
sg73
I145
sg74
I9
sbag0
(g64
g2
Ntp510
Rp511
(dp512
g68
I429
sg69
I0
sg70
I01
sg71
I2
sg72
I00
sg73
I146
sg74
I9
sbag0
(g64
g2
Ntp513
Rp514
(dp515
g68
I492
sg69
I0
sg70
I01
sg71
I4
sg72
I00
sg73
I147
sg74
I9
sbag0
(g64
g2
Ntp516
Rp517
(dp518
g68
I221
sg69
I0
sg70
I01
sg71
I1
sg72
I00
sg73
I148
sg74
I9
sbag0
(g64
g2
Ntp519
Rp520
(dp521
g68
I492
sg69
I0
sg70
I01
sg71
I4
sg72
I00
sg73
I149
sg74
I9
sbag0
(g64
g2
Ntp522
Rp523
(dp524
g68
I406
sg69
I0
sg70
I01
sg71
I1
sg72
I00
sg73
I150
sg74
I9
sbag0
(g64
g2
Ntp525
Rp526
(dp527
g68
I221
sg69
I0
sg70
I01
sg71
I1
sg72
I00
sg73
I151
sg74
I9
sbag0
(g64
g2
Ntp528
Rp529
(dp530
g68
I221
sg69
I0
sg70
I01
sg71
I1
sg72
I00
sg73
I152
sg74
I9
sbag0
(g64
g2
Ntp531
Rp532
(dp533
g68
I192
sg69
I0
sg70
I01
sg71
I1
sg72
I00
sg73
I153
sg74
I9
sbag0
(g64
g2
Ntp534
Rp535
(dp536
g68
I369
sg69
I0
sg70
I01
sg71
I1
sg72
I00
sg73
I154
sg74
I9
sbag0
(g64
g2
Ntp537
Rp538
(dp539
g68
I429
sg69
I0
sg70
I01
sg71
I2
sg72
I00
sg73
I155
sg74
I9
sbag0
(g64
g2
Ntp540
Rp541
(dp542
g68
I429
sg69
I0
sg70
I01
sg71
I2
sg72
I00
sg73
I156
sg74
I9
sbag0
(g64
g2
Ntp543
Rp544
(dp545
g68
I14
sg69
I0
sg70
I01
sg71
I1
sg72
I00
sg73
I157
sg74
I9
sbag0
(g64
g2
Ntp546
Rp547
(dp548
g68
I429
sg69
I0
sg70
I01
sg71
I2
sg72
I00
sg73
I158
sg74
I9
sbag0
(g64
g2
Ntp549
Rp550
(dp551
g68
I429
sg69
I0
sg70
I01
sg71
I2
sg72
I00
sg73
I159
sg74
I9
sbag0
(g64
g2
Ntp552
Rp553
(dp554
g68
I429
sg69
I0
sg70
I01
sg71
I2
sg72
I00
sg73
I160
sg74
I9
sbag0
(g64
g2
Ntp555
Rp556
(dp557
g68
I492
sg69
I0
sg70
I01
sg71
I4
sg72
I00
sg73
I161
sg74
I9
sbag0
(g64
g2
Ntp558
Rp559
(dp560
g68
I217
sg69
I0
sg70
I01
sg71
I1
sg72
I00
sg73
I162
sg74
I9
sbag0
(g64
g2
Ntp561
Rp562
(dp563
g68
I429
sg69
I0
sg70
I01
sg71
I2
sg72
I00
sg73
I163
sg74
I9
sbag0
(g64
g2
Ntp564
Rp565
(dp566
g68
I429
sg69
I0
sg70
I01
sg71
I2
sg72
I00
sg73
I164
sg74
I9
sbag0
(g64
g2
Ntp567
Rp568
(dp569
g68
Nsg69
I0
sg70
I00
sg71
I1
sg72
I01
sg73
I165
sg74
I9
sbag0
(g64
g2
Ntp570
Rp571
(dp572
g68
I429
sg69
I0
sg70
I01
sg71
I2
sg72
I00
sg73
I166
sg74
I9
sbag0
(g64
g2
Ntp573
Rp574
(dp575
g68
I492
sg69
I0
sg70
I01
sg71
I4
sg72
I00
sg73
I167
sg74
I9
sbag0
(g64
g2
Ntp576
Rp577
(dp578
g68
Nsg69
I1
sg70
I00
sg71
I3
sg72
I01
sg73
I168
sg74
I9
sbag0
(g64
g2
Ntp579
Rp580
(dp581
g68
I221
sg69
I0
sg70
I01
sg71
I1
sg72
I00
sg73
I169
sg74
I9
sbag0
(g64
g2
Ntp582
Rp583
(dp584
g68
I429
sg69
I0
sg70
I01
sg71
I2
sg72
I00
sg73
I170
sg74
I9
sbag0
(g64
g2
Ntp585
Rp586
(dp587
g68
I429
sg69
I0
sg70
I01
sg71
I2
sg72
I00
sg73
I171
sg74
I9
sbag0
(g64
g2
Ntp588
Rp589
(dp590
g68
I429
sg69
I0
sg70
I01
sg71
I2
sg72
I00
sg73
I172
sg74
I9
sbag0
(g64
g2
Ntp591
Rp592
(dp593
g68
I14
sg69
I0
sg70
I01
sg71
I1
sg72
I00
sg73
I173
sg74
I9
sbag0
(g64
g2
Ntp594
Rp595
(dp596
g68
I14
sg69
I0
sg70
I01
sg71
I1
sg72
I00
sg73
I174
sg74
I9
sbag0
(g64
g2
Ntp597
Rp598
(dp599
g68
I429
sg69
I0
sg70
I01
sg71
I2
sg72
I00
sg73
I175
sg74
I9
sbag0
(g64
g2
Ntp600
Rp601
(dp602
g68
I192
sg69
I0
sg70
I01
sg71
I1
sg72
I00
sg73
I176
sg74
I9
sbag0
(g64
g2
Ntp603
Rp604
(dp605
g68
I217
sg69
I0
sg70
I01
sg71
I1
sg72
I00
sg73
I177
sg74
I9
sbag0
(g64
g2
Ntp606
Rp607
(dp608
g68
I429
sg69
I0
sg70
I01
sg71
I2
sg72
I00
sg73
I178
sg74
I9
sbag0
(g64
g2
Ntp609
Rp610
(dp611
g68
I429
sg69
I0
sg70
I01
sg71
I2
sg72
I00
sg73
I179
sg74
I9
sbag0
(g64
g2
Ntp612
Rp613
(dp614
g68
I429
sg69
I0
sg70
I01
sg71
I2
sg72
I00
sg73
I180
sg74
I9
sbag0
(g64
g2
Ntp615
Rp616
(dp617
g68
I429
sg69
I0
sg70
I01
sg71
I2
sg72
I00
sg73
I181
sg74
I9
sbag0
(g64
g2
Ntp618
Rp619
(dp620
g68
I492
sg69
I0
sg70
I01
sg71
I4
sg72
I00
sg73
I182
sg74
I9
sbag0
(g64
g2
Ntp621
Rp622
(dp623
g68
I192
sg69
I0
sg70
I01
sg71
I1
sg72
I00
sg73
I183
sg74
I9
sbag0
(g64
g2
Ntp624
Rp625
(dp626
g68
I429
sg69
I0
sg70
I01
sg71
I2
sg72
I00
sg73
I184
sg74
I9
sbag0
(g64
g2
Ntp627
Rp628
(dp629
g68
I221
sg69
I0
sg70
I01
sg71
I1
sg72
I00
sg73
I185
sg74
I9
sbag0
(g64
g2
Ntp630
Rp631
(dp632
g68
I14
sg69
I0
sg70
I01
sg71
I1
sg72
I00
sg73
I186
sg74
I9
sbag0
(g64
g2
Ntp633
Rp634
(dp635
g68
I429
sg69
I0
sg70
I01
sg71
I2
sg72
I00
sg73
I187
sg74
I9
sbag0
(g64
g2
Ntp636
Rp637
(dp638
g68
I217
sg69
I0
sg70
I01
sg71
I1
sg72
I00
sg73
I188
sg74
I9
sbag0
(g64
g2
Ntp639
Rp640
(dp641
g68
I221
sg69
I0
sg70
I01
sg71
I1
sg72
I00
sg73
I189
sg74
I9
sbag0
(g64
g2
Ntp642
Rp643
(dp644
g68
I492
sg69
I0
sg70
I01
sg71
I4
sg72
I00
sg73
I190
sg74
I9
sbag0
(g64
g2
Ntp645
Rp646
(dp647
g68
I429
sg69
I0
sg70
I01
sg71
I2
sg72
I00
sg73
I191
sg74
I9
sbag0
(g64
g2
Ntp648
Rp649
(dp650
g68
Nsg69
I16
sg70
I00
sg71
I1
sg72
I01
sg73
I192
sg74
I9
sbag0
(g64
g2
Ntp651
Rp652
(dp653
g68
Nsg69
I0
sg70
I00
sg71
I4
sg72
I01
sg73
I193
sg74
I9
sbag0
(g64
g2
Ntp654
Rp655
(dp656
g68
I429
sg69
I0
sg70
I01
sg71
I2
sg72
I00
sg73
I194
sg74
I9
sbag0
(g64
g2
Ntp657
Rp658
(dp659
g68
I192
sg69
I0
sg70
I01
sg71
I1
sg72
I00
sg73
I195
sg74
I9
sbag0
(g64
g2
Ntp660
Rp661
(dp662
g68
I429
sg69
I0
sg70
I01
sg71
I2
sg72
I00
sg73
I196
sg74
I9
sbag0
(g64
g2
Ntp663
Rp664
(dp665
g68
I492
sg69
I0
sg70
I01
sg71
I4
sg72
I00
sg73
I197
sg74
I9
sbag0
(g64
g2
Ntp666
Rp667
(dp668
g68
I369
sg69
I0
sg70
I01
sg71
I1
sg72
I00
sg73
I198
sg74
I9
sbag0
(g64
g2
Ntp669
Rp670
(dp671
g68
I429
sg69
I0
sg70
I01
sg71
I2
sg72
I00
sg73
I199
sg74
I9
sbag0
(g64
g2
Ntp672
Rp673
(dp674
g68
I429
sg69
I0
sg70
I01
sg71
I2
sg72
I00
sg73
I200
sg74
I9
sbag0
(g64
g2
Ntp675
Rp676
(dp677
g68
I492
sg69
I0
sg70
I01
sg71
I4
sg72
I00
sg73
I201
sg74
I9
sbag0
(g64
g2
Ntp678
Rp679
(dp680
g68
Nsg69
I0
sg70
I00
sg71
I4
sg72
I01
sg73
I202
sg74
I9
sbag0
(g64
g2
Ntp681
Rp682
(dp683
g68
I221
sg69
I0
sg70
I01
sg71
I1
sg72
I00
sg73
I203
sg74
I9
sbag0
(g64
g2
Ntp684
Rp685
(dp686
g68
I14
sg69
I0
sg70
I01
sg71
I1
sg72
I00
sg73
I204
sg74
I9
sbag0
(g64
g2
Ntp687
Rp688
(dp689
g68
I356
sg69
I0
sg70
I01
sg71
I3
sg72
I00
sg73
I205
sg74
I9
sbag0
(g64
g2
Ntp690
Rp691
(dp692
g68
I429
sg69
I0
sg70
I01
sg71
I2
sg72
I00
sg73
I206
sg74
I9
sbag0
(g64
g2
Ntp693
Rp694
(dp695
g68
I429
sg69
I0
sg70
I01
sg71
I2
sg72
I00
sg73
I207
sg74
I9
sbag0
(g64
g2
Ntp696
Rp697
(dp698
g68
I429
sg69
I0
sg70
I01
sg71
I2
sg72
I00
sg73
I208
sg74
I9
sbag0
(g64
g2
Ntp699
Rp700
(dp701
g68
I429
sg69
I0
sg70
I01
sg71
I2
sg72
I00
sg73
I209
sg74
I9
sbag0
(g64
g2
Ntp702
Rp703
(dp704
g68
I429
sg69
I0
sg70
I01
sg71
I2
sg72
I00
sg73
I210
sg74
I9
sbag0
(g64
g2
Ntp705
Rp706
(dp707
g68
I437
sg69
I0
sg70
I01
sg71
I3
sg72
I00
sg73
I211
sg74
I9
sbag0
(g64
g2
Ntp708
Rp709
(dp710
g68
I221
sg69
I0
sg70
I01
sg71
I1
sg72
I00
sg73
I212
sg74
I9
sbag0
(g64
g2
Ntp711
Rp712
(dp713
g68
I429
sg69
I0
sg70
I01
sg71
I2
sg72
I00
sg73
I213
sg74
I9
sbag0
(g64
g2
Ntp714
Rp715
(dp716
g68
I429
sg69
I0
sg70
I01
sg71
I2
sg72
I00
sg73
I214
sg74
I9
sbag0
(g64
g2
Ntp717
Rp718
(dp719
g68
I429
sg69
I0
sg70
I01
sg71
I2
sg72
I00
sg73
I215
sg74
I9
sbag0
(g64
g2
Ntp720
Rp721
(dp722
g68
I429
sg69
I0
sg70
I01
sg71
I2
sg72
I00
sg73
I216
sg74
I9
sbag0
(g64
g2
Ntp723
Rp724
(dp725
g68
Nsg69
I8
sg70
I00
sg71
I1
sg72
I01
sg73
I217
sg74
I9
sbag0
(g64
g2
Ntp726
Rp727
(dp728
g68
I482
sg69
I0
sg70
I01
sg71
I5
sg72
I00
sg73
I218
sg74
I9
sbag0
(g64
g2
Ntp729
Rp730
(dp731
g68
I429
sg69
I0
sg70
I01
sg71
I2
sg72
I00
sg73
I219
sg74
I9
sbag0
(g64
g2
Ntp732
Rp733
(dp734
g68
I369
sg69
I0
sg70
I01
sg71
I1
sg72
I00
sg73
I220
sg74
I9
sbag0
(g64
g2
Ntp735
Rp736
(dp737
g68
Nsg69
I33
sg70
I00
sg71
I1
sg72
I01
sg73
I221
sg74
I9
sbag0
(g64
g2
Ntp738
Rp739
(dp740
g68
I492
sg69
I0
sg70
I01
sg71
I4
sg72
I00
sg73
I222
sg74
I9
sbag0
(g64
g2
Ntp741
Rp742
(dp743
g68
I406
sg69
I0
sg70
I01
sg71
I1
sg72
I00
sg73
I223
sg74
I9
sbag0
(g64
g2
Ntp744
Rp745
(dp746
g68
I429
sg69
I0
sg70
I01
sg71
I2
sg72
I00
sg73
I224
sg74
I9
sbag0
(g64
g2
Ntp747
Rp748
(dp749
g68
I429
sg69
I0
sg70
I01
sg71
I2
sg72
I00
sg73
I225
sg74
I9
sbag0
(g64
g2
Ntp750
Rp751
(dp752
g68
I14
sg69
I0
sg70
I01
sg71
I1
sg72
I00
sg73
I226
sg74
I9
sbag0
(g64
g2
Ntp753
Rp754
(dp755
g68
I492
sg69
I0
sg70
I01
sg71
I4
sg72
I00
sg73
I227
sg74
I9
sbag0
(g64
g2
Ntp756
Rp757
(dp758
g68
I429
sg69
I0
sg70
I01
sg71
I2
sg72
I00
sg73
I228
sg74
I9
sbag0
(g64
g2
Ntp759
Rp760
(dp761
g68
I14
sg69
I0
sg70
I01
sg71
I1
sg72
I00
sg73
I229
sg74
I9
sbag0
(g64
g2
Ntp762
Rp763
(dp764
g68
I14
sg69
I0
sg70
I01
sg71
I1
sg72
I00
sg73
I230
sg74
I9
sbag0
(g64
g2
Ntp765
Rp766
(dp767
g68
I429
sg69
I0
sg70
I01
sg71
I2
sg72
I00
sg73
I231
sg74
I9
sbag0
(g64
g2
Ntp768
Rp769
(dp770
g68
I492
sg69
I0
sg70
I01
sg71
I4
sg72
I00
sg73
I232
sg74
I9
sbag0
(g64
g2
Ntp771
Rp772
(dp773
g68
I429
sg69
I0
sg70
I01
sg71
I2
sg72
I00
sg73
I233
sg74
I9
sbag0
(g64
g2
Ntp774
Rp775
(dp776
g68
I429
sg69
I0
sg70
I01
sg71
I2
sg72
I00
sg73
I234
sg74
I9
sbag0
(g64
g2
Ntp777
Rp778
(dp779
g68
I429
sg69
I0
sg70
I01
sg71
I2
sg72
I00
sg73
I235
sg74
I9
sbag0
(g64
g2
Ntp780
Rp781
(dp782
g68
I14
sg69
I0
sg70
I01
sg71
I1
sg72
I00
sg73
I236
sg74
I9
sbag0
(g64
g2
Ntp783
Rp784
(dp785
g68
I221
sg69
I0
sg70
I01
sg71
I1
sg72
I00
sg73
I237
sg74
I9
sbag0
(g64
g2
Ntp786
Rp787
(dp788
g68
I429
sg69
I0
sg70
I01
sg71
I2
sg72
I00
sg73
I238
sg74
I9
sbag0
(g64
g2
Ntp789
Rp790
(dp791
g68
I437
sg69
I0
sg70
I01
sg71
I3
sg72
I00
sg73
I239
sg74
I9
sbag0
(g64
g2
Ntp792
Rp793
(dp794
g68
I221
sg69
I0
sg70
I01
sg71
I1
sg72
I00
sg73
I240
sg74
I9
sbag0
(g64
g2
Ntp795
Rp796
(dp797
g68
I14
sg69
I0
sg70
I01
sg71
I1
sg72
I00
sg73
I241
sg74
I9
sbag0
(g64
g2
Ntp798
Rp799
(dp800
g68
I429
sg69
I0
sg70
I01
sg71
I2
sg72
I00
sg73
I242
sg74
I9
sbag0
(g64
g2
Ntp801
Rp802
(dp803
g68
I482
sg69
I0
sg70
I01
sg71
I5
sg72
I00
sg73
I243
sg74
I9
sbag0
(g64
g2
Ntp804
Rp805
(dp806
g68
I429
sg69
I0
sg70
I01
sg71
I2
sg72
I00
sg73
I244
sg74
I9
sbag0
(g64
g2
Ntp807
Rp808
(dp809
g68
I217
sg69
I0
sg70
I01
sg71
I1
sg72
I00
sg73
I245
sg74
I9
sbag0
(g64
g2
Ntp810
Rp811
(dp812
g68
I492
sg69
I0
sg70
I01
sg71
I4
sg72
I00
sg73
I246
sg74
I9
sbag0
(g64
g2
Ntp813
Rp814
(dp815
g68
I369
sg69
I0
sg70
I01
sg71
I1
sg72
I00
sg73
I247
sg74
I9
sbag0
(g64
g2
Ntp816
Rp817
(dp818
g68
I429
sg69
I0
sg70
I01
sg71
I2
sg72
I00
sg73
I248
sg74
I9
sbag0
(g64
g2
Ntp819
Rp820
(dp821
g68
I429
sg69
I0
sg70
I01
sg71
I2
sg72
I00
sg73
I249
sg74
I9
sbag0
(g64
g2
Ntp822
Rp823
(dp824
g68
I492
sg69
I0
sg70
I01
sg71
I4
sg72
I00
sg73
I250
sg74
I9
sbag0
(g64
g2
Ntp825
Rp826
(dp827
g68
I429
sg69
I0
sg70
I01
sg71
I2
sg72
I00
sg73
I251
sg74
I9
sbag0
(g64
g2
Ntp828
Rp829
(dp830
g68
I429
sg69
I0
sg70
I01
sg71
I2
sg72
I00
sg73
I252
sg74
I9
sbag0
(g64
g2
Ntp831
Rp832
(dp833
g68
I429
sg69
I0
sg70
I01
sg71
I2
sg72
I00
sg73
I253
sg74
I9
sbag0
(g64
g2
Ntp834
Rp835
(dp836
g68
I429
sg69
I0
sg70
I01
sg71
I2
sg72
I00
sg73
I254
sg74
I9
sbag0
(g64
g2
Ntp837
Rp838
(dp839
g68
I429
sg69
I0
sg70
I01
sg71
I2
sg72
I00
sg73
I255
sg74
I9
sbag0
(g64
g2
Ntp840
Rp841
(dp842
g68
I429
sg69
I0
sg70
I01
sg71
I2
sg72
I00
sg73
I256
sg74
I9
sbag0
(g64
g2
Ntp843
Rp844
(dp845
g68
I429
sg69
I0
sg70
I01
sg71
I2
sg72
I00
sg73
I257
sg74
I9
sbag0
(g64
g2
Ntp846
Rp847
(dp848
g68
I429
sg69
I0
sg70
I01
sg71
I2
sg72
I00
sg73
I258
sg74
I9
sbag0
(g64
g2
Ntp849
Rp850
(dp851
g68
I429
sg69
I0
sg70
I01
sg71
I2
sg72
I00
sg73
I259
sg74
I9
sbag0
(g64
g2
Ntp852
Rp853
(dp854
g68
I14
sg69
I0
sg70
I01
sg71
I1
sg72
I00
sg73
I260
sg74
I9
sbag0
(g64
g2
Ntp855
Rp856
(dp857
g68
I429
sg69
I0
sg70
I01
sg71
I2
sg72
I00
sg73
I261
sg74
I9
sbag0
(g64
g2
Ntp858
Rp859
(dp860
g68
I429
sg69
I0
sg70
I01
sg71
I2
sg72
I00
sg73
I262
sg74
I9
sbag0
(g64
g2
Ntp861
Rp862
(dp863
g68
I429
sg69
I0
sg70
I01
sg71
I2
sg72
I00
sg73
I263
sg74
I9
sbag0
(g64
g2
Ntp864
Rp865
(dp866
g68
I492
sg69
I0
sg70
I01
sg71
I4
sg72
I00
sg73
I264
sg74
I9
sbag0
(g64
g2
Ntp867
Rp868
(dp869
g68
Nsg69
I3
sg70
I00
sg71
I4
sg72
I01
sg73
I265
sg74
I9
sbag0
(g64
g2
Ntp870
Rp871
(dp872
g68
I429
sg69
I0
sg70
I01
sg71
I2
sg72
I00
sg73
I266
sg74
I9
sbag0
(g64
g2
Ntp873
Rp874
(dp875
g68
I429
sg69
I0
sg70
I01
sg71
I2
sg72
I00
sg73
I267
sg74
I9
sbag0
(g64
g2
Ntp876
Rp877
(dp878
g68
I429
sg69
I0
sg70
I01
sg71
I2
sg72
I00
sg73
I268
sg74
I9
sbag0
(g64
g2
Ntp879
Rp880
(dp881
g68
I429
sg69
I0
sg70
I01
sg71
I2
sg72
I00
sg73
I269
sg74
I9
sbag0
(g64
g2
Ntp882
Rp883
(dp884
g68
Nsg69
I0
sg70
I00
sg71
I1
sg72
I01
sg73
I270
sg74
I9
sbag0
(g64
g2
Ntp885
Rp886
(dp887
g68
I14
sg69
I0
sg70
I01
sg71
I1
sg72
I00
sg73
I271
sg74
I9
sbag0
(g64
g2
Ntp888
Rp889
(dp890
g68
I429
sg69
I0
sg70
I01
sg71
I2
sg72
I00
sg73
I272
sg74
I9
sbag0
(g64
g2
Ntp891
Rp892
(dp893
g68
I429
sg69
I0
sg70
I01
sg71
I2
sg72
I00
sg73
I273
sg74
I9
sbag0
(g64
g2
Ntp894
Rp895
(dp896
g68
I14
sg69
I0
sg70
I01
sg71
I1
sg72
I00
sg73
I274
sg74
I9
sbag0
(g64
g2
Ntp897
Rp898
(dp899
g68
I406
sg69
I0
sg70
I01
sg71
I1
sg72
I00
sg73
I275
sg74
I9
sbag0
(g64
g2
Ntp900
Rp901
(dp902
g68
I429
sg69
I0
sg70
I01
sg71
I2
sg72
I00
sg73
I276
sg74
I9
sbag0
(g64
g2
Ntp903
Rp904
(dp905
g68
I14
sg69
I0
sg70
I01
sg71
I1
sg72
I00
sg73
I277
sg74
I9
sbag0
(g64
g2
Ntp906
Rp907
(dp908
g68
I14
sg69
I0
sg70
I01
sg71
I1
sg72
I00
sg73
I278
sg74
I9
sbag0
(g64
g2
Ntp909
Rp910
(dp911
g68
I429
sg69
I0
sg70
I01
sg71
I2
sg72
I00
sg73
I279
sg74
I9
sbag0
(g64
g2
Ntp912
Rp913
(dp914
g68
I429
sg69
I0
sg70
I01
sg71
I2
sg72
I00
sg73
I280
sg74
I9
sbag0
(g64
g2
Ntp915
Rp916
(dp917
g68
I429
sg69
I0
sg70
I01
sg71
I2
sg72
I00
sg73
I281
sg74
I9
sbag0
(g64
g2
Ntp918
Rp919
(dp920
g68
I265
sg69
I0
sg70
I01
sg71
I4
sg72
I00
sg73
I282
sg74
I9
sbag0
(g64
g2
Ntp921
Rp922
(dp923
g68
I429
sg69
I0
sg70
I01
sg71
I2
sg72
I00
sg73
I283
sg74
I9
sbag0
(g64
g2
Ntp924
Rp925
(dp926
g68
I429
sg69
I0
sg70
I01
sg71
I2
sg72
I00
sg73
I284
sg74
I9
sbag0
(g64
g2
Ntp927
Rp928
(dp929
g68
I221
sg69
I0
sg70
I01
sg71
I1
sg72
I00
sg73
I285
sg74
I9
sbag0
(g64
g2
Ntp930
Rp931
(dp932
g68
I429
sg69
I0
sg70
I01
sg71
I2
sg72
I00
sg73
I286
sg74
I9
sbag0
(g64
g2
Ntp933
Rp934
(dp935
g68
I429
sg69
I0
sg70
I01
sg71
I2
sg72
I00
sg73
I287
sg74
I9
sbag0
(g64
g2
Ntp936
Rp937
(dp938
g68
I429
sg69
I0
sg70
I01
sg71
I2
sg72
I00
sg73
I288
sg74
I9
sbag0
(g64
g2
Ntp939
Rp940
(dp941
g68
I429
sg69
I0
sg70
I01
sg71
I2
sg72
I00
sg73
I289
sg74
I9
sbag0
(g64
g2
Ntp942
Rp943
(dp944
g68
I429
sg69
I0
sg70
I01
sg71
I2
sg72
I00
sg73
I290
sg74
I9
sbag0
(g64
g2
Ntp945
Rp946
(dp947
g68
I14
sg69
I0
sg70
I01
sg71
I1
sg72
I00
sg73
I291
sg74
I9
sbag0
(g64
g2
Ntp948
Rp949
(dp950
g68
I14
sg69
I0
sg70
I01
sg71
I1
sg72
I00
sg73
I292
sg74
I9
sbag0
(g64
g2
Ntp951
Rp952
(dp953
g68
I429
sg69
I0
sg70
I01
sg71
I2
sg72
I00
sg73
I293
sg74
I9
sbag0
(g64
g2
Ntp954
Rp955
(dp956
g68
I429
sg69
I0
sg70
I01
sg71
I2
sg72
I00
sg73
I294
sg74
I9
sbag0
(g64
g2
Ntp957
Rp958
(dp959
g68
I429
sg69
I0
sg70
I01
sg71
I2
sg72
I00
sg73
I295
sg74
I9
sbag0
(g64
g2
Ntp960
Rp961
(dp962
g68
I429
sg69
I0
sg70
I01
sg71
I2
sg72
I00
sg73
I296
sg74
I9
sbag0
(g64
g2
Ntp963
Rp964
(dp965
g68
I492
sg69
I0
sg70
I01
sg71
I4
sg72
I00
sg73
I297
sg74
I9
sbag0
(g64
g2
Ntp966
Rp967
(dp968
g68
I437
sg69
I0
sg70
I01
sg71
I3
sg72
I00
sg73
I298
sg74
I9
sbag0
(g64
g2
Ntp969
Rp970
(dp971
g68
I429
sg69
I0
sg70
I01
sg71
I2
sg72
I00
sg73
I299
sg74
I9
sbag0
(g64
g2
Ntp972
Rp973
(dp974
g68
I221
sg69
I0
sg70
I01
sg71
I1
sg72
I00
sg73
I300
sg74
I9
sbag0
(g64
g2
Ntp975
Rp976
(dp977
g68
I429
sg69
I0
sg70
I01
sg71
I2
sg72
I00
sg73
I301
sg74
I9
sbag0
(g64
g2
Ntp978
Rp979
(dp980
g68
I429
sg69
I0
sg70
I01
sg71
I2
sg72
I00
sg73
I302
sg74
I9
sbag0
(g64
g2
Ntp981
Rp982
(dp983
g68
I221
sg69
I0
sg70
I01
sg71
I1
sg72
I00
sg73
I303
sg74
I9
sbag0
(g64
g2
Ntp984
Rp985
(dp986
g68
I221
sg69
I0
sg70
I01
sg71
I1
sg72
I00
sg73
I304
sg74
I9
sbag0
(g64
g2
Ntp987
Rp988
(dp989
g68
I429
sg69
I0
sg70
I01
sg71
I2
sg72
I00
sg73
I305
sg74
I9
sbag0
(g64
g2
Ntp990
Rp991
(dp992
g68
I429
sg69
I0
sg70
I01
sg71
I2
sg72
I00
sg73
I306
sg74
I9
sbag0
(g64
g2
Ntp993
Rp994
(dp995
g68
I482
sg69
I0
sg70
I01
sg71
I5
sg72
I00
sg73
I307
sg74
I9
sbag0
(g64
g2
Ntp996
Rp997
(dp998
g68
I192
sg69
I0
sg70
I01
sg71
I1
sg72
I00
sg73
I308
sg74
I9
sbag0
(g64
g2
Ntp999
Rp1000
(dp1001
g68
I429
sg69
I0
sg70
I01
sg71
I2
sg72
I00
sg73
I309
sg74
I9
sbag0
(g64
g2
Ntp1002
Rp1003
(dp1004
g68
I492
sg69
I0
sg70
I01
sg71
I4
sg72
I00
sg73
I310
sg74
I9
sbag0
(g64
g2
Ntp1005
Rp1006
(dp1007
g68
I14
sg69
I0
sg70
I01
sg71
I1
sg72
I00
sg73
I311
sg74
I9
sbag0
(g64
g2
Ntp1008
Rp1009
(dp1010
g68
I429
sg69
I0
sg70
I01
sg71
I2
sg72
I00
sg73
I312
sg74
I9
sbag0
(g64
g2
Ntp1011
Rp1012
(dp1013
g68
I429
sg69
I0
sg70
I01
sg71
I2
sg72
I00
sg73
I313
sg74
I9
sbag0
(g64
g2
Ntp1014
Rp1015
(dp1016
g68
I14
sg69
I0
sg70
I01
sg71
I1
sg72
I00
sg73
I314
sg74
I9
sbag0
(g64
g2
Ntp1017
Rp1018
(dp1019
g68
I369
sg69
I0
sg70
I01
sg71
I1
sg72
I00
sg73
I315
sg74
I9
sbag0
(g64
g2
Ntp1020
Rp1021
(dp1022
g68
I429
sg69
I0
sg70
I01
sg71
I2
sg72
I00
sg73
I316
sg74
I9
sbag0
(g64
g2
Ntp1023
Rp1024
(dp1025
g68
I429
sg69
I0
sg70
I01
sg71
I2
sg72
I00
sg73
I317
sg74
I9
sbag0
(g64
g2
Ntp1026
Rp1027
(dp1028
g68
I429
sg69
I0
sg70
I01
sg71
I2
sg72
I00
sg73
I318
sg74
I9
sbag0
(g64
g2
Ntp1029
Rp1030
(dp1031
g68
I429
sg69
I0
sg70
I01
sg71
I2
sg72
I00
sg73
I319
sg74
I9
sbag0
(g64
g2
Ntp1032
Rp1033
(dp1034
g68
I221
sg69
I0
sg70
I01
sg71
I1
sg72
I00
sg73
I320
sg74
I9
sbag0
(g64
g2
Ntp1035
Rp1036
(dp1037
g68
I492
sg69
I0
sg70
I01
sg71
I4
sg72
I00
sg73
I321
sg74
I9
sbag0
(g64
g2
Ntp1038
Rp1039
(dp1040
g68
I409
sg69
I0
sg70
I01
sg71
I4
sg72
I00
sg73
I322
sg74
I9
sbag0
(g64
g2
Ntp1041
Rp1042
(dp1043
g68
I429
sg69
I0
sg70
I01
sg71
I2
sg72
I00
sg73
I323
sg74
I9
sbag0
(g64
g2
Ntp1044
Rp1045
(dp1046
g68
I14
sg69
I0
sg70
I01
sg71
I1
sg72
I00
sg73
I324
sg74
I9
sbag0
(g64
g2
Ntp1047
Rp1048
(dp1049
g68
Nsg69
I0
sg70
I00
sg71
I3
sg72
I01
sg73
I325
sg74
I9
sbag0
(g64
g2
Ntp1050
Rp1051
(dp1052
g68
I14
sg69
I0
sg70
I01
sg71
I1
sg72
I00
sg73
I326
sg74
I9
sbag0
(g64
g2
Ntp1053
Rp1054
(dp1055
g68
I221
sg69
I0
sg70
I01
sg71
I1
sg72
I00
sg73
I327
sg74
I9
sbag0
(g64
g2
Ntp1056
Rp1057
(dp1058
g68
I429
sg69
I0
sg70
I01
sg71
I2
sg72
I00
sg73
I328
sg74
I9
sbag0
(g64
g2
Ntp1059
Rp1060
(dp1061
g68
I429
sg69
I0
sg70
I01
sg71
I2
sg72
I00
sg73
I329
sg74
I9
sbag0
(g64
g2
Ntp1062
Rp1063
(dp1064
g68
I429
sg69
I0
sg70
I01
sg71
I2
sg72
I00
sg73
I330
sg74
I9
sbag0
(g64
g2
Ntp1065
Rp1066
(dp1067
g68
Nsg69
I0
sg70
I00
sg71
I4
sg72
I01
sg73
I331
sg74
I9
sbag0
(g64
g2
Ntp1068
Rp1069
(dp1070
g68
I14
sg69
I0
sg70
I01
sg71
I1
sg72
I00
sg73
I332
sg74
I9
sbag0
(g64
g2
Ntp1071
Rp1072
(dp1073
g68
I116
sg69
I0
sg70
I01
sg71
I5
sg72
I00
sg73
I333
sg74
I9
sbag0
(g64
g2
Ntp1074
Rp1075
(dp1076
g68
I429
sg69
I0
sg70
I01
sg71
I2
sg72
I00
sg73
I334
sg74
I9
sbag0
(g64
g2
Ntp1077
Rp1078
(dp1079
g68
I429
sg69
I0
sg70
I01
sg71
I2
sg72
I00
sg73
I335
sg74
I9
sbag0
(g64
g2
Ntp1080
Rp1081
(dp1082
g68
I429
sg69
I0
sg70
I01
sg71
I2
sg72
I00
sg73
I336
sg74
I9
sbag0
(g64
g2
Ntp1083
Rp1084
(dp1085
g68
I14
sg69
I0
sg70
I01
sg71
I1
sg72
I00
sg73
I337
sg74
I9
sbag0
(g64
g2
Ntp1086
Rp1087
(dp1088
g68
I429
sg69
I0
sg70
I01
sg71
I2
sg72
I00
sg73
I338
sg74
I9
sbag0
(g64
g2
Ntp1089
Rp1090
(dp1091
g68
I221
sg69
I0
sg70
I01
sg71
I1
sg72
I00
sg73
I339
sg74
I9
sbag0
(g64
g2
Ntp1092
Rp1093
(dp1094
g68
I437
sg69
I0
sg70
I01
sg71
I3
sg72
I00
sg73
I340
sg74
I9
sbag0
(g64
g2
Ntp1095
Rp1096
(dp1097
g68
I429
sg69
I0
sg70
I01
sg71
I2
sg72
I00
sg73
I341
sg74
I9
sbag0
(g64
g2
Ntp1098
Rp1099
(dp1100
g68
I429
sg69
I0
sg70
I01
sg71
I2
sg72
I00
sg73
I342
sg74
I9
sbag0
(g64
g2
Ntp1101
Rp1102
(dp1103
g68
I429
sg69
I0
sg70
I01
sg71
I2
sg72
I00
sg73
I343
sg74
I9
sbag0
(g64
g2
Ntp1104
Rp1105
(dp1106
g68
I429
sg69
I0
sg70
I01
sg71
I2
sg72
I00
sg73
I344
sg74
I9
sbag0
(g64
g2
Ntp1107
Rp1108
(dp1109
g68
I429
sg69
I0
sg70
I01
sg71
I2
sg72
I00
sg73
I345
sg74
I9
sbag0
(g64
g2
Ntp1110
Rp1111
(dp1112
g68
I406
sg69
I0
sg70
I01
sg71
I1
sg72
I00
sg73
I346
sg74
I9
sbag0
(g64
g2
Ntp1113
Rp1114
(dp1115
g68
I369
sg69
I0
sg70
I01
sg71
I1
sg72
I00
sg73
I347
sg74
I9
sbag0
(g64
g2
Ntp1116
Rp1117
(dp1118
g68
I429
sg69
I0
sg70
I01
sg71
I2
sg72
I00
sg73
I348
sg74
I9
sbag0
(g64
g2
Ntp1119
Rp1120
(dp1121
g68
I429
sg69
I0
sg70
I01
sg71
I2
sg72
I00
sg73
I349
sg74
I9
sbag0
(g64
g2
Ntp1122
Rp1123
(dp1124
g68
I429
sg69
I0
sg70
I01
sg71
I2
sg72
I00
sg73
I350
sg74
I9
sbag0
(g64
g2
Ntp1125
Rp1126
(dp1127
g68
I429
sg69
I0
sg70
I01
sg71
I2
sg72
I00
sg73
I351
sg74
I9
sbag0
(g64
g2
Ntp1128
Rp1129
(dp1130
g68
I429
sg69
I0
sg70
I01
sg71
I2
sg72
I00
sg73
I352
sg74
I9
sbag0
(g64
g2
Ntp1131
Rp1132
(dp1133
g68
I429
sg69
I0
sg70
I01
sg71
I2
sg72
I00
sg73
I353
sg74
I9
sbag0
(g64
g2
Ntp1134
Rp1135
(dp1136
g68
I429
sg69
I0
sg70
I01
sg71
I2
sg72
I00
sg73
I354
sg74
I9
sbag0
(g64
g2
Ntp1137
Rp1138
(dp1139
g68
I492
sg69
I0
sg70
I01
sg71
I4
sg72
I00
sg73
I355
sg74
I9
sbag0
(g64
g2
Ntp1140
Rp1141
(dp1142
g68
Nsg69
I4
sg70
I00
sg71
I3
sg72
I01
sg73
I356
sg74
I9
sbag0
(g64
g2
Ntp1143
Rp1144
(dp1145
g68
I429
sg69
I0
sg70
I01
sg71
I2
sg72
I00
sg73
I357
sg74
I9
sbag0
(g64
g2
Ntp1146
Rp1147
(dp1148
g68
I14
sg69
I0
sg70
I01
sg71
I1
sg72
I00
sg73
I358
sg74
I9
sbag0
(g64
g2
Ntp1149
Rp1150
(dp1151
g68
I429
sg69
I0
sg70
I01
sg71
I2
sg72
I00
sg73
I359
sg74
I9
sbag0
(g64
g2
Ntp1152
Rp1153
(dp1154
g68
I429
sg69
I0
sg70
I01
sg71
I2
sg72
I00
sg73
I360
sg74
I9
sbag0
(g64
g2
Ntp1155
Rp1156
(dp1157
g68
I429
sg69
I0
sg70
I01
sg71
I2
sg72
I00
sg73
I361
sg74
I9
sbag0
(g64
g2
Ntp1158
Rp1159
(dp1160
g68
I429
sg69
I0
sg70
I01
sg71
I2
sg72
I00
sg73
I362
sg74
I9
sbag0
(g64
g2
Ntp1161
Rp1162
(dp1163
g68
I429
sg69
I0
sg70
I01
sg71
I2
sg72
I00
sg73
I363
sg74
I9
sbag0
(g64
g2
Ntp1164
Rp1165
(dp1166
g68
I221
sg69
I0
sg70
I01
sg71
I1
sg72
I00
sg73
I364
sg74
I9
sbag0
(g64
g2
Ntp1167
Rp1168
(dp1169
g68
I369
sg69
I0
sg70
I01
sg71
I1
sg72
I00
sg73
I365
sg74
I9
sbag0
(g64
g2
Ntp1170
Rp1171
(dp1172
g68
I429
sg69
I0
sg70
I01
sg71
I2
sg72
I00
sg73
I366
sg74
I9
sbag0
(g64
g2
Ntp1173
Rp1174
(dp1175
g68
I429
sg69
I0
sg70
I01
sg71
I2
sg72
I00
sg73
I367
sg74
I9
sbag0
(g64
g2
Ntp1176
Rp1177
(dp1178
g68
I429
sg69
I0
sg70
I01
sg71
I2
sg72
I00
sg73
I368
sg74
I9
sbag0
(g64
g2
Ntp1179
Rp1180
(dp1181
g68
Nsg69
I27
sg70
I00
sg71
I1
sg72
I01
sg73
I369
sg74
I9
sbag0
(g64
g2
Ntp1182
Rp1183
(dp1184
g68
I429
sg69
I0
sg70
I01
sg71
I2
sg72
I00
sg73
I370
sg74
I9
sbag0
(g64
g2
Ntp1185
Rp1186
(dp1187
g68
I429
sg69
I0
sg70
I01
sg71
I2
sg72
I00
sg73
I371
sg74
I9
sbag0
(g64
g2
Ntp1188
Rp1189
(dp1190
g68
I429
sg69
I0
sg70
I01
sg71
I2
sg72
I00
sg73
I372
sg74
I9
sbag0
(g64
g2
Ntp1191
Rp1192
(dp1193
g68
I429
sg69
I0
sg70
I01
sg71
I2
sg72
I00
sg73
I373
sg74
I9
sbag0
(g64
g2
Ntp1194
Rp1195
(dp1196
g68
I429
sg69
I0
sg70
I01
sg71
I2
sg72
I00
sg73
I374
sg74
I9
sbag0
(g64
g2
Ntp1197
Rp1198
(dp1199
g68
I429
sg69
I0
sg70
I01
sg71
I2
sg72
I00
sg73
I375
sg74
I9
sbag0
(g64
g2
Ntp1200
Rp1201
(dp1202
g68
I429
sg69
I0
sg70
I01
sg71
I2
sg72
I00
sg73
I376
sg74
I9
sbag0
(g64
g2
Ntp1203
Rp1204
(dp1205
g68
I369
sg69
I0
sg70
I01
sg71
I1
sg72
I00
sg73
I377
sg74
I9
sbag0
(g64
g2
Ntp1206
Rp1207
(dp1208
g68
I429
sg69
I0
sg70
I01
sg71
I2
sg72
I00
sg73
I378
sg74
I9
sbag0
(g64
g2
Ntp1209
Rp1210
(dp1211
g68
I429
sg69
I0
sg70
I01
sg71
I2
sg72
I00
sg73
I379
sg74
I9
sbag0
(g64
g2
Ntp1212
Rp1213
(dp1214
g68
I429
sg69
I0
sg70
I01
sg71
I2
sg72
I00
sg73
I380
sg74
I9
sbag0
(g64
g2
Ntp1215
Rp1216
(dp1217
g68
I492
sg69
I0
sg70
I01
sg71
I4
sg72
I00
sg73
I381
sg74
I9
sbag0
(g64
g2
Ntp1218
Rp1219
(dp1220
g68
I14
sg69
I0
sg70
I01
sg71
I1
sg72
I00
sg73
I382
sg74
I9
sbag0
(g64
g2
Ntp1221
Rp1222
(dp1223
g68
I429
sg69
I0
sg70
I01
sg71
I2
sg72
I00
sg73
I383
sg74
I9
sbag0
(g64
g2
Ntp1224
Rp1225
(dp1226
g68
I429
sg69
I0
sg70
I01
sg71
I2
sg72
I00
sg73
I384
sg74
I9
sbag0
(g64
g2
Ntp1227
Rp1228
(dp1229
g68
I221
sg69
I0
sg70
I01
sg71
I1
sg72
I00
sg73
I385
sg74
I9
sbag0
(g64
g2
Ntp1230
Rp1231
(dp1232
g68
I429
sg69
I0
sg70
I01
sg71
I2
sg72
I00
sg73
I386
sg74
I9
sbag0
(g64
g2
Ntp1233
Rp1234
(dp1235
g68
I14
sg69
I0
sg70
I01
sg71
I1
sg72
I00
sg73
I387
sg74
I9
sbag0
(g64
g2
Ntp1236
Rp1237
(dp1238
g68
I369
sg69
I0
sg70
I01
sg71
I1
sg72
I00
sg73
I388
sg74
I9
sbag0
(g64
g2
Ntp1239
Rp1240
(dp1241
g68
I429
sg69
I0
sg70
I01
sg71
I2
sg72
I00
sg73
I389
sg74
I9
sbag0
(g64
g2
Ntp1242
Rp1243
(dp1244
g68
I429
sg69
I0
sg70
I01
sg71
I2
sg72
I00
sg73
I390
sg74
I9
sbag0
(g64
g2
Ntp1245
Rp1246
(dp1247
g68
I221
sg69
I0
sg70
I01
sg71
I1
sg72
I00
sg73
I391
sg74
I9
sbag0
(g64
g2
Ntp1248
Rp1249
(dp1250
g68
I221
sg69
I0
sg70
I01
sg71
I1
sg72
I00
sg73
I392
sg74
I9
sbag0
(g64
g2
Ntp1251
Rp1252
(dp1253
g68
I406
sg69
I0
sg70
I01
sg71
I1
sg72
I00
sg73
I393
sg74
I9
sbag0
(g64
g2
Ntp1254
Rp1255
(dp1256
g68
I429
sg69
I0
sg70
I01
sg71
I2
sg72
I00
sg73
I394
sg74
I9
sbag0
(g64
g2
Ntp1257
Rp1258
(dp1259
g68
I429
sg69
I0
sg70
I01
sg71
I2
sg72
I00
sg73
I395
sg74
I9
sbag0
(g64
g2
Ntp1260
Rp1261
(dp1262
g68
I429
sg69
I0
sg70
I01
sg71
I2
sg72
I00
sg73
I396
sg74
I9
sbag0
(g64
g2
Ntp1263
Rp1264
(dp1265
g68
I429
sg69
I0
sg70
I01
sg71
I2
sg72
I00
sg73
I397
sg74
I9
sbag0
(g64
g2
Ntp1266
Rp1267
(dp1268
g68
I192
sg69
I0
sg70
I01
sg71
I1
sg72
I00
sg73
I398
sg74
I9
sbag0
(g64
g2
Ntp1269
Rp1270
(dp1271
g68
I265
sg69
I0
sg70
I01
sg71
I4
sg72
I00
sg73
I399
sg74
I9
sbag0
(g64
g2
Ntp1272
Rp1273
(dp1274
g68
I492
sg69
I0
sg70
I01
sg71
I4
sg72
I00
sg73
I400
sg74
I9
sbag0
(g64
g2
Ntp1275
Rp1276
(dp1277
g68
I429
sg69
I0
sg70
I01
sg71
I2
sg72
I00
sg73
I401
sg74
I9
sbag0
(g64
g2
Ntp1278
Rp1279
(dp1280
g68
I429
sg69
I0
sg70
I01
sg71
I2
sg72
I00
sg73
I402
sg74
I9
sbag0
(g64
g2
Ntp1281
Rp1282
(dp1283
g68
I14
sg69
I0
sg70
I01
sg71
I1
sg72
I00
sg73
I403
sg74
I9
sbag0
(g64
g2
Ntp1284
Rp1285
(dp1286
g68
I429
sg69
I0
sg70
I01
sg71
I2
sg72
I00
sg73
I404
sg74
I9
sbag0
(g64
g2
Ntp1287
Rp1288
(dp1289
g68
I429
sg69
I0
sg70
I01
sg71
I2
sg72
I00
sg73
I405
sg74
I9
sbag0
(g64
g2
Ntp1290
Rp1291
(dp1292
g68
Nsg69
I10
sg70
I00
sg71
I1
sg72
I01
sg73
I406
sg74
I9
sbag0
(g64
g2
Ntp1293
Rp1294
(dp1295
g68
I429
sg69
I0
sg70
I01
sg71
I2
sg72
I00
sg73
I407
sg74
I9
sbag0
(g64
g2
Ntp1296
Rp1297
(dp1298
g68
I14
sg69
I0
sg70
I01
sg71
I1
sg72
I00
sg73
I408
sg74
I9
sbag0
(g64
g2
Ntp1299
Rp1300
(dp1301
g68
Nsg69
I1
sg70
I00
sg71
I4
sg72
I01
sg73
I409
sg74
I9
sbag0
(g64
g2
Ntp1302
Rp1303
(dp1304
g68
Nsg69
I0
sg70
I00
sg71
I6
sg72
I01
sg73
I410
sg74
I9
sbag0
(g64
g2
Ntp1305
Rp1306
(dp1307
g68
I429
sg69
I0
sg70
I01
sg71
I2
sg72
I00
sg73
I411
sg74
I9
sbag0
(g64
g2
Ntp1308
Rp1309
(dp1310
g68
I482
sg69
I0
sg70
I01
sg71
I5
sg72
I00
sg73
I412
sg74
I9
sbag0
(g64
g2
Ntp1311
Rp1312
(dp1313
g68
I429
sg69
I0
sg70
I01
sg71
I2
sg72
I00
sg73
I413
sg74
I9
sbag0
(g64
g2
Ntp1314
Rp1315
(dp1316
g68
I429
sg69
I0
sg70
I01
sg71
I2
sg72
I00
sg73
I414
sg74
I9
sbag0
(g64
g2
Ntp1317
Rp1318
(dp1319
g68
I192
sg69
I0
sg70
I01
sg71
I1
sg72
I00
sg73
I415
sg74
I9
sbag0
(g64
g2
Ntp1320
Rp1321
(dp1322
g68
I429
sg69
I0
sg70
I01
sg71
I2
sg72
I00
sg73
I416
sg74
I9
sbag0
(g64
g2
Ntp1323
Rp1324
(dp1325
g68
I429
sg69
I0
sg70
I01
sg71
I2
sg72
I00
sg73
I417
sg74
I9
sbag0
(g64
g2
Ntp1326
Rp1327
(dp1328
g68
I429
sg69
I0
sg70
I01
sg71
I2
sg72
I00
sg73
I418
sg74
I9
sbag0
(g64
g2
Ntp1329
Rp1330
(dp1331
g68
I369
sg69
I0
sg70
I01
sg71
I1
sg72
I00
sg73
I419
sg74
I9
sbag0
(g64
g2
Ntp1332
Rp1333
(dp1334
g68
I429
sg69
I0
sg70
I01
sg71
I2
sg72
I00
sg73
I420
sg74
I9
sbag0
(g64
g2
Ntp1335
Rp1336
(dp1337
g68
I437
sg69
I0
sg70
I01
sg71
I3
sg72
I00
sg73
I421
sg74
I9
sbag0
(g64
g2
Ntp1338
Rp1339
(dp1340
g68
I14
sg69
I0
sg70
I01
sg71
I1
sg72
I00
sg73
I422
sg74
I9
sbag0
(g64
g2
Ntp1341
Rp1342
(dp1343
g68
I14
sg69
I0
sg70
I01
sg71
I1
sg72
I00
sg73
I423
sg74
I9
sbag0
(g64
g2
Ntp1344
Rp1345
(dp1346
g68
I14
sg69
I0
sg70
I01
sg71
I1
sg72
I00
sg73
I424
sg74
I9
sbag0
(g64
g2
Ntp1347
Rp1348
(dp1349
g68
I429
sg69
I0
sg70
I01
sg71
I2
sg72
I00
sg73
I425
sg74
I9
sbag0
(g64
g2
Ntp1350
Rp1351
(dp1352
g68
I429
sg69
I0
sg70
I01
sg71
I2
sg72
I00
sg73
I426
sg74
I9
sbag0
(g64
g2
Ntp1353
Rp1354
(dp1355
g68
I356
sg69
I0
sg70
I01
sg71
I3
sg72
I00
sg73
I427
sg74
I9
sbag0
(g64
g2
Ntp1356
Rp1357
(dp1358
g68
I406
sg69
I0
sg70
I01
sg71
I1
sg72
I00
sg73
I428
sg74
I9
sbag0
(g64
g2
Ntp1359
Rp1360
(dp1361
g68
Nsg69
I273
sg70
I00
sg71
I2
sg72
I01
sg73
I429
sg74
I9
sbag0
(g64
g2
Ntp1362
Rp1363
(dp1364
g68
I429
sg69
I0
sg70
I01
sg71
I2
sg72
I00
sg73
I430
sg74
I9
sbag0
(g64
g2
Ntp1365
Rp1366
(dp1367
g68
I482
sg69
I0
sg70
I01
sg71
I5
sg72
I00
sg73
I431
sg74
I9
sbag0
(g64
g2
Ntp1368
Rp1369
(dp1370
g68
I429
sg69
I0
sg70
I01
sg71
I2
sg72
I00
sg73
I432
sg74
I9
sbag0
(g64
g2
Ntp1371
Rp1372
(dp1373
g68
I492
sg69
I0
sg70
I01
sg71
I4
sg72
I00
sg73
I433
sg74
I9
sbag0
(g64
g2
Ntp1374
Rp1375
(dp1376
g68
I429
sg69
I0
sg70
I01
sg71
I2
sg72
I00
sg73
I434
sg74
I9
sbag0
(g64
g2
Ntp1377
Rp1378
(dp1379
g68
I14
sg69
I0
sg70
I01
sg71
I1
sg72
I00
sg73
I435
sg74
I9
sbag0
(g64
g2
Ntp1380
Rp1381
(dp1382
g68
I429
sg69
I0
sg70
I01
sg71
I2
sg72
I00
sg73
I436
sg74
I9
sbag0
(g64
g2
Ntp1383
Rp1384
(dp1385
g68
Nsg69
I10
sg70
I00
sg71
I3
sg72
I01
sg73
I437
sg74
I9
sbag0
(g64
g2
Ntp1386
Rp1387
(dp1388
g68
I221
sg69
I0
sg70
I01
sg71
I1
sg72
I00
sg73
I438
sg74
I9
sbag0
(g64
g2
Ntp1389
Rp1390
(dp1391
g68
I492
sg69
I0
sg70
I01
sg71
I4
sg72
I00
sg73
I439
sg74
I9
sbag0
(g64
g2
Ntp1392
Rp1393
(dp1394
g68
I437
sg69
I0
sg70
I01
sg71
I3
sg72
I00
sg73
I440
sg74
I9
sbag0
(g64
g2
Ntp1395
Rp1396
(dp1397
g68
I429
sg69
I0
sg70
I01
sg71
I2
sg72
I00
sg73
I441
sg74
I9
sbag0
(g64
g2
Ntp1398
Rp1399
(dp1400
g68
I369
sg69
I0
sg70
I01
sg71
I1
sg72
I00
sg73
I442
sg74
I9
sbag0
(g64
g2
Ntp1401
Rp1402
(dp1403
g68
Nsg69
I0
sg70
I00
sg71
I5
sg72
I01
sg73
I443
sg74
I9
sbag0
(g64
g2
Ntp1404
Rp1405
(dp1406
g68
I429
sg69
I0
sg70
I01
sg71
I2
sg72
I00
sg73
I444
sg74
I9
sbag0
(g64
g2
Ntp1407
Rp1408
(dp1409
g68
I221
sg69
I0
sg70
I01
sg71
I1
sg72
I00
sg73
I445
sg74
I9
sbag0
(g64
g2
Ntp1410
Rp1411
(dp1412
g68
I192
sg69
I0
sg70
I01
sg71
I1
sg72
I00
sg73
I446
sg74
I9
sbag0
(g64
g2
Ntp1413
Rp1414
(dp1415
g68
I369
sg69
I0
sg70
I01
sg71
I1
sg72
I00
sg73
I447
sg74
I9
sbag0
(g64
g2
Ntp1416
Rp1417
(dp1418
g68
I14
sg69
I0
sg70
I01
sg71
I1
sg72
I00
sg73
I448
sg74
I9
sbag0
(g64
g2
Ntp1419
Rp1420
(dp1421
g68
I14
sg69
I0
sg70
I01
sg71
I1
sg72
I00
sg73
I449
sg74
I9
sbag0
(g64
g2
Ntp1422
Rp1423
(dp1424
g68
I429
sg69
I0
sg70
I01
sg71
I2
sg72
I00
sg73
I450
sg74
I9
sbag0
(g64
g2
Ntp1425
Rp1426
(dp1427
g68
I429
sg69
I0
sg70
I01
sg71
I2
sg72
I00
sg73
I451
sg74
I9
sbag0
(g64
g2
Ntp1428
Rp1429
(dp1430
g68
I14
sg69
I0
sg70
I01
sg71
I1
sg72
I00
sg73
I452
sg74
I9
sbag0
(g64
g2
Ntp1431
Rp1432
(dp1433
g68
I369
sg69
I0
sg70
I01
sg71
I1
sg72
I00
sg73
I453
sg74
I9
sbag0
(g64
g2
Ntp1434
Rp1435
(dp1436
g68
I429
sg69
I0
sg70
I01
sg71
I2
sg72
I00
sg73
I454
sg74
I9
sbag0
(g64
g2
Ntp1437
Rp1438
(dp1439
g68
I217
sg69
I0
sg70
I01
sg71
I1
sg72
I00
sg73
I455
sg74
I9
sbag0
(g64
g2
Ntp1440
Rp1441
(dp1442
g68
I14
sg69
I0
sg70
I01
sg71
I1
sg72
I00
sg73
I456
sg74
I9
sbag0
(g64
g2
Ntp1443
Rp1444
(dp1445
g68
I221
sg69
I0
sg70
I01
sg71
I1
sg72
I00
sg73
I457
sg74
I9
sbag0
(g64
g2
Ntp1446
Rp1447
(dp1448
g68
I429
sg69
I0
sg70
I01
sg71
I2
sg72
I00
sg73
I458
sg74
I9
sbag0
(g64
g2
Ntp1449
Rp1450
(dp1451
g68
I429
sg69
I0
sg70
I01
sg71
I2
sg72
I00
sg73
I459
sg74
I9
sbag0
(g64
g2
Ntp1452
Rp1453
(dp1454
g68
I429
sg69
I0
sg70
I01
sg71
I2
sg72
I00
sg73
I460
sg74
I9
sbag0
(g64
g2
Ntp1455
Rp1456
(dp1457
g68
I429
sg69
I0
sg70
I01
sg71
I2
sg72
I00
sg73
I461
sg74
I9
sbag0
(g64
g2
Ntp1458
Rp1459
(dp1460
g68
I429
sg69
I0
sg70
I01
sg71
I2
sg72
I00
sg73
I462
sg74
I9
sbag0
(g64
g2
Ntp1461
Rp1462
(dp1463
g68
I429
sg69
I0
sg70
I01
sg71
I2
sg72
I00
sg73
I463
sg74
I9
sbag0
(g64
g2
Ntp1464
Rp1465
(dp1466
g68
I429
sg69
I0
sg70
I01
sg71
I2
sg72
I00
sg73
I464
sg74
I9
sbag0
(g64
g2
Ntp1467
Rp1468
(dp1469
g68
I192
sg69
I0
sg70
I01
sg71
I1
sg72
I00
sg73
I465
sg74
I9
sbag0
(g64
g2
Ntp1470
Rp1471
(dp1472
g68
I14
sg69
I0
sg70
I01
sg71
I1
sg72
I00
sg73
I466
sg74
I9
sbag0
(g64
g2
Ntp1473
Rp1474
(dp1475
g68
I429
sg69
I0
sg70
I01
sg71
I2
sg72
I00
sg73
I467
sg74
I9
sbag0
(g64
g2
Ntp1476
Rp1477
(dp1478
g68
I14
sg69
I0
sg70
I01
sg71
I1
sg72
I00
sg73
I468
sg74
I9
sbag0
(g64
g2
Ntp1479
Rp1480
(dp1481
g68
I429
sg69
I0
sg70
I01
sg71
I2
sg72
I00
sg73
I469
sg74
I9
sbag0
(g64
g2
Ntp1482
Rp1483
(dp1484
g68
I429
sg69
I0
sg70
I01
sg71
I2
sg72
I00
sg73
I470
sg74
I9
sbag0
(g64
g2
Ntp1485
Rp1486
(dp1487
g68
I429
sg69
I0
sg70
I01
sg71
I2
sg72
I00
sg73
I471
sg74
I9
sbag0
(g64
g2
Ntp1488
Rp1489
(dp1490
g68
I221
sg69
I0
sg70
I01
sg71
I1
sg72
I00
sg73
I472
sg74
I9
sbag0
(g64
g2
Ntp1491
Rp1492
(dp1493
g68
I429
sg69
I0
sg70
I01
sg71
I2
sg72
I00
sg73
I473
sg74
I9
sbag0
(g64
g2
Ntp1494
Rp1495
(dp1496
g68
I369
sg69
I0
sg70
I01
sg71
I1
sg72
I00
sg73
I474
sg74
I9
sbag0
(g64
g2
Ntp1497
Rp1498
(dp1499
g68
I492
sg69
I0
sg70
I01
sg71
I4
sg72
I00
sg73
I475
sg74
I9
sbag0
(g64
g2
Ntp1500
Rp1501
(dp1502
g68
I369
sg69
I0
sg70
I01
sg71
I1
sg72
I00
sg73
I476
sg74
I9
sbag0
(g64
g2
Ntp1503
Rp1504
(dp1505
g68
I429
sg69
I0
sg70
I01
sg71
I2
sg72
I00
sg73
I477
sg74
I9
sbag0
(g64
g2
Ntp1506
Rp1507
(dp1508
g68
I429
sg69
I0
sg70
I01
sg71
I2
sg72
I00
sg73
I478
sg74
I9
sbag0
(g64
g2
Ntp1509
Rp1510
(dp1511
g68
I192
sg69
I0
sg70
I01
sg71
I1
sg72
I00
sg73
I479
sg74
I9
sbag0
(g64
g2
Ntp1512
Rp1513
(dp1514
g68
I14
sg69
I0
sg70
I01
sg71
I1
sg72
I00
sg73
I480
sg74
I9
sbag0
(g64
g2
Ntp1515
Rp1516
(dp1517
g68
I429
sg69
I0
sg70
I01
sg71
I2
sg72
I00
sg73
I481
sg74
I9
sbag0
(g64
g2
Ntp1518
Rp1519
(dp1520
g68
Nsg69
I9
sg70
I00
sg71
I5
sg72
I01
sg73
I482
sg74
I9
sbag0
(g64
g2
Ntp1521
Rp1522
(dp1523
g68
I429
sg69
I0
sg70
I01
sg71
I2
sg72
I00
sg73
I483
sg74
I9
sbag0
(g64
g2
Ntp1524
Rp1525
(dp1526
g68
I429
sg69
I0
sg70
I01
sg71
I2
sg72
I00
sg73
I484
sg74
I9
sbag0
(g64
g2
Ntp1527
Rp1528
(dp1529
g68
I429
sg69
I0
sg70
I01
sg71
I2
sg72
I00
sg73
I485
sg74
I9
sbag0
(g64
g2
Ntp1530
Rp1531
(dp1532
g68
I429
sg69
I0
sg70
I01
sg71
I2
sg72
I00
sg73
I486
sg74
I9
sbag0
(g64
g2
Ntp1533
Rp1534
(dp1535
g68
I492
sg69
I0
sg70
I01
sg71
I4
sg72
I00
sg73
I487
sg74
I9
sbag0
(g64
g2
Ntp1536
Rp1537
(dp1538
g68
I429
sg69
I0
sg70
I01
sg71
I2
sg72
I00
sg73
I488
sg74
I9
sbag0
(g64
g2
Ntp1539
Rp1540
(dp1541
g68
I116
sg69
I0
sg70
I01
sg71
I5
sg72
I00
sg73
I489
sg74
I9
sbag0
(g64
g2
Ntp1542
Rp1543
(dp1544
g68
I14
sg69
I0
sg70
I01
sg71
I1
sg72
I00
sg73
I490
sg74
I9
sbag0
(g64
g2
Ntp1545
Rp1546
(dp1547
g68
I14
sg69
I0
sg70
I01
sg71
I1
sg72
I00
sg73
I491
sg74
I9
sbag0
(g64
g2
Ntp1548
Rp1549
(dp1550
g68
Nsg69
I31
sg70
I00
sg71
I4
sg72
I01
sg73
I492
sg74
I9
sbag0
(g64
g2
Ntp1551
Rp1552
(dp1553
g68
I369
sg69
I0
sg70
I01
sg71
I1
sg72
I00
sg73
I493
sg74
I9
sbag0
(g64
g2
Ntp1554
Rp1555
(dp1556
g68
I429
sg69
I0
sg70
I01
sg71
I2
sg72
I00
sg73
I494
sg74
I9
sbag0
(g64
g2
Ntp1557
Rp1558
(dp1559
g68
I429
sg69
I0
sg70
I01
sg71
I2
sg72
I00
sg73
I495
sg74
I9
sbag0
(g64
g2
Ntp1560
Rp1561
(dp1562
g68
I429
sg69
I0
sg70
I01
sg71
I2
sg72
I00
sg73
I496
sg74
I9
sbag0
(g64
g2
Ntp1563
Rp1564
(dp1565
g68
Nsg69
I0
sg70
I00
sg71
I4
sg72
I01
sg73
I497
sg74
I9
sbag0
(g64
g2
Ntp1566
Rp1567
(dp1568
g68
I429
sg69
I0
sg70
I01
sg71
I2
sg72
I00
sg73
I498
sg74
I9
sbag0
(g64
g2
Ntp1569
Rp1570
(dp1571
g68
I429
sg69
I0
sg70
I01
sg71
I2
sg72
I00
sg73
I499
sg74
I9
sbag0
(g64
g2
Ntp1572
Rp1573
(dp1574
g68
I429
sg69
I0
sg70
I01
sg71
I2
sg72
I00
sg73
I500
sg74
I9
sbag0
(g64
g2
Ntp1575
Rp1576
(dp1577
g68
I492
sg69
I0
sg70
I01
sg71
I4
sg72
I00
sg73
I501
sg74
I9
sbag0
(g64
g2
Ntp1578
Rp1579
(dp1580
g68
I265
sg69
I0
sg70
I01
sg71
I4
sg72
I00
sg73
I502
sg74
I9
sbag0
(g64
g2
Ntp1581
Rp1582
(dp1583
g68
I356
sg69
I0
sg70
I01
sg71
I3
sg72
I00
sg73
I503
sg74
I9
sbag0
(g64
g2
Ntp1584
Rp1585
(dp1586
g68
I429
sg69
I0
sg70
I01
sg71
I2
sg72
I00
sg73
I504
sg74
I9
sbag0
(g64
g2
Ntp1587
Rp1588
(dp1589
g68
I14
sg69
I0
sg70
I01
sg71
I1
sg72
I00
sg73
I505
sg74
I9
sbag0
(g64
g2
Ntp1590
Rp1591
(dp1592
g68
I429
sg69
I0
sg70
I01
sg71
I2
sg72
I00
sg73
I506
sg74
I9
sbag0
(g64
g2
Ntp1593
Rp1594
(dp1595
g68
I192
sg69
I0
sg70
I01
sg71
I1
sg72
I00
sg73
I507
sg74
I9
sbag0
(g64
g2
Ntp1596
Rp1597
(dp1598
g68
I429
sg69
I0
sg70
I01
sg71
I2
sg72
I00
sg73
I508
sg74
I9
sbag0
(g64
g2
Ntp1599
Rp1600
(dp1601
g68
I429
sg69
I0
sg70
I01
sg71
I2
sg72
I00
sg73
I509
sg74
I9
sbag0
(g64
g2
Ntp1602
Rp1603
(dp1604
g68
I429
sg69
I0
sg70
I01
sg71
I2
sg72
I00
sg73
I510
sg74
I9
sbag0
(g64
g2
Ntp1605
Rp1606
(dp1607
g68
I429
sg69
I0
sg70
I01
sg71
I2
sg72
I00
sg73
I511
sg74
I9
sbasS'linksList'
p1608
(lp1609
(lp1610
I4
aI8
aI0
aI7
aI1
aI5
aI3
aI6
aI2
aa(lp1611
I6
aI2
aI3
aI8
aI1
aI7
aI4
aI5
aI0
aa(lp1612
I1
aI2
aI7
aI0
aI6
aI5
aI3
aI8
aI4
aa(lp1613
I5
aI0
aI3
aI6
aI8
aI7
aI2
aI1
aI4
aa(lp1614
I5
aI2
aI0
aI7
aI4
aI3
aI6
aI8
aI1
aa(lp1615
I0
aI2
aI5
aI3
aI6
aI8
aI7
aI1
aI4
aa(lp1616
I6
aI2
aI7
aI5
aI0
aI3
aI8
aI4
aI1
aa(lp1617
I2
aI3
aI7
aI8
aI5
aI1
aI6
aI4
aI0
aa(lp1618
I1
aI0
aI4
aI8
aI6
aI3
aI5
aI7
aI2
aasb.