ccopy_reg
_reconstructor
p0
(cNK_Network.Automata
NK_Automata
p1
c__builtin__
object
p2
Ntp3
Rp4
(dp5
S'stability'
p6
F0.6953125
sS'stateSpan'
p7
(dp8
I0
I85
sI1
I4
sI2
I29
sI3
I12
sI4
I65
sI5
I48
sI6
I9
sI7
I56
sI8
I85
sI9
I5
sI10
I29
sI11
I13
sI12
I65
sI13
I49
sI14
I9
sI15
I57
sI16
I16
sI17
I65
sI18
I88
sI19
I73
sI20
I4
sI21
I117
sI22
I76
sI23
I125
sI24
I18
sI25
I66
sI26
I90
sI27
I74
sI28
I6
sI29
I118
sI30
I78
sI31
I126
sI32
I95
sI33
I46
sI34
I23
sI35
I38
sI36
I79
sI37
I62
sI38
I7
sI39
I54
sI40
I93
sI41
I45
sI42
I21
sI43
I37
sI44
I77
sI45
I61
sI46
I5
sI47
I53
sI48
I24
sI49
I105
sI50
I80
sI51
I97
sI52
I12
sI53
I125
sI54
I68
sI55
I117
sI56
I24
sI57
I104
sI58
I80
sI59
I96
sI60
I12
sI61
I124
sI62
I68
sI63
I116
sI64
I69
sI65
I20
sI66
I5
sI67
I20
sI68
I65
sI69
I48
sI70
I1
sI71
I48
sI72
I69
sI73
I21
sI74
I5
sI75
I21
sI76
I65
sI77
I49
sI78
I1
sI79
I49
sI80
I0
sI81
I81
sI82
I64
sI83
I81
sI84
I4
sI85
I117
sI86
I68
sI87
I117
sI88
I2
sI89
I82
sI90
I66
sI91
I82
sI92
I6
sI93
I118
sI94
I70
sI95
I118
sI96
I71
sI97
I54
sI98
I15
sI99
I62
sI100
I71
sI101
I54
sI102
I15
sI103
I62
sI104
I69
sI105
I53
sI106
I13
sI107
I61
sI108
I69
sI109
I53
sI110
I13
sI111
I61
sI112
I0
sI113
I113
sI114
I72
sI115
I121
sI116
I4
sI117
I117
sI118
I76
sI119
I125
sI120
I0
sI121
I112
sI122
I72
sI123
I120
sI124
I4
sI125
I116
sI126
I76
sI127
I124
ssS'attractorDict'
p9
(dp10
I1
(lp11
I1
aI18
asI2
(lp12
I3
aI102
asI3
(lp13
I1
aI0
asI4
(lp14
I1
aI1
asI5
(lp15
I1
aI0
assS'K'
p16
I3
sS'ordinalNumber'
p17
I-1
sS'N'
p18
I7
sS'basinAmount'
p19
I5
sS'functionsList'
p20
(lp21
g0
(cNK_Network.BoolFunction
BoolFunction
p22
g2
Ntp23
Rp24
(dp25
S'valuesString'
p26
S'10010011'
p27
sg16
I3
sbag0
(g22
g2
Ntp28
Rp29
(dp30
g26
S'00010011'
p31
sg16
I3
sbag0
(g22
g2
Ntp32
Rp33
(dp34
g26
S'10010011'
p35
sg16
I3
sbag0
(g22
g2
Ntp36
Rp37
(dp38
g26
S'01001001'
p39
sg16
I3
sbag0
(g22
g2
Ntp40
Rp41
(dp42
g26
S'11010011'
p43
sg16
I3
sbag0
(g22
g2
Ntp44
Rp45
(dp46
g26
S'00011000'
p47
sg16
I3
sbag0
(g22
g2
Ntp48
Rp49
(dp50
g26
S'10100110'
p51
sg16
I3
sbasS'expectedReturnTime'
p52
F5.396694214876033
sS'stateList'
p53
(lp54
g0
(cNK_Network.State
State
p55
g2
Ntp56
Rp57
(dp58
S'firstAttractorStateNumber'
p59
I117
sS'weight'
p60
I0
sS'inBasin'
p61
I01
sS'basinNumber'
p62
I1
sS'inAttractor'
p63
I00
sS'stateNumber'
p64
I0
sS'dimension'
p65
I7
sbag0
(g55
g2
Ntp66
Rp67
(dp68
g59
I4
sg60
I0
sg61
I01
sg62
I2
sg63
I00
sg64
I1
sg65
I7
sbag0
(g55
g2
Ntp69
Rp70
(dp71
g59
I65
sg60
I0
sg61
I01
sg62
I2
sg63
I00
sg64
I2
sg65
I7
sbag0
(g55
g2
Ntp72
Rp73
(dp74
g59
I65
sg60
I0
sg61
I01
sg62
I2
sg63
I00
sg64
I3
sg65
I7
sbag0
(g55
g2
Ntp75
Rp76
(dp77
g59
Nsg60
I32
sg61
I00
sg62
I2
sg63
I01
sg64
I4
sg65
I7
sbag0
(g55
g2
Ntp78
Rp79
(dp80
g59
I65
sg60
I0
sg61
I01
sg62
I2
sg63
I00
sg64
I5
sg65
I7
sbag0
(g55
g2
Ntp81
Rp82
(dp83
g59
I65
sg60
I0
sg61
I01
sg62
I2
sg63
I00
sg64
I6
sg65
I7
sbag0
(g55
g2
Ntp84
Rp85
(dp86
g59
I65
sg60
I0
sg61
I01
sg62
I2
sg63
I00
sg64
I7
sg65
I7
sbag0
(g55
g2
Ntp87
Rp88
(dp89
g59
I117
sg60
I0
sg61
I01
sg62
I1
sg63
I00
sg64
I8
sg65
I7
sbag0
(g55
g2
Ntp90
Rp91
(dp92
g59
I65
sg60
I0
sg61
I01
sg62
I2
sg63
I00
sg64
I9
sg65
I7
sbag0
(g55
g2
Ntp93
Rp94
(dp95
g59
I65
sg60
I0
sg61
I01
sg62
I2
sg63
I00
sg64
I10
sg65
I7
sbag0
(g55
g2
Ntp96
Rp97
(dp98
g59
I4
sg60
I0
sg61
I01
sg62
I2
sg63
I00
sg64
I11
sg65
I7
sbag0
(g55
g2
Ntp99
Rp100
(dp101
g59
I65
sg60
I0
sg61
I01
sg62
I2
sg63
I00
sg64
I12
sg65
I7
sbag0
(g55
g2
Ntp102
Rp103
(dp104
g59
I4
sg60
I0
sg61
I01
sg62
I2
sg63
I00
sg64
I13
sg65
I7
sbag0
(g55
g2
Ntp105
Rp106
(dp107
g59
I65
sg60
I0
sg61
I01
sg62
I2
sg63
I00
sg64
I14
sg65
I7
sbag0
(g55
g2
Ntp108
Rp109
(dp110
g59
I65
sg60
I0
sg61
I01
sg62
I2
sg63
I00
sg64
I15
sg65
I7
sbag0
(g55
g2
Ntp111
Rp112
(dp113
g59
Nsg60
I0
sg61
I00
sg62
I3
sg63
I01
sg64
I16
sg65
I7
sbag0
(g55
g2
Ntp114
Rp115
(dp116
g59
I65
sg60
I0
sg61
I01
sg62
I2
sg63
I00
sg64
I17
sg65
I7
sbag0
(g55
g2
Ntp117
Rp118
(dp119
g59
I65
sg60
I0
sg61
I01
sg62
I2
sg63
I00
sg64
I18
sg65
I7
sbag0
(g55
g2
Ntp120
Rp121
(dp122
g59
I117
sg60
I0
sg61
I01
sg62
I1
sg63
I00
sg64
I19
sg65
I7
sbag0
(g55
g2
Ntp123
Rp124
(dp125
g59
Nsg60
I1
sg61
I00
sg62
I2
sg63
I01
sg64
I20
sg65
I7
sbag0
(g55
g2
Ntp126
Rp127
(dp128
g59
I117
sg60
I0
sg61
I01
sg62
I1
sg63
I00
sg64
I21
sg65
I7
sbag0
(g55
g2
Ntp129
Rp130
(dp131
g59
I65
sg60
I0
sg61
I01
sg62
I2
sg63
I00
sg64
I22
sg65
I7
sbag0
(g55
g2
Ntp132
Rp133
(dp134
g59
I4
sg60
I0
sg61
I01
sg62
I2
sg63
I00
sg64
I23
sg65
I7
sbag0
(g55
g2
Ntp135
Rp136
(dp137
g59
I65
sg60
I0
sg61
I01
sg62
I2
sg63
I00
sg64
I24
sg65
I7
sbag0
(g55
g2
Ntp138
Rp139
(dp140
g59
I65
sg60
I0
sg61
I01
sg62
I2
sg63
I00
sg64
I25
sg65
I7
sbag0
(g55
g2
Ntp141
Rp142
(dp143
g59
I65
sg60
I0
sg61
I01
sg62
I2
sg63
I00
sg64
I26
sg65
I7
sbag0
(g55
g2
Ntp144
Rp145
(dp146
g59
I65
sg60
I0
sg61
I01
sg62
I2
sg63
I00
sg64
I27
sg65
I7
sbag0
(g55
g2
Ntp147
Rp148
(dp149
g59
I65
sg60
I0
sg61
I01
sg62
I2
sg63
I00
sg64
I28
sg65
I7
sbag0
(g55
g2
Ntp150
Rp151
(dp152
g59
I65
sg60
I0
sg61
I01
sg62
I2
sg63
I00
sg64
I29
sg65
I7
sbag0
(g55
g2
Ntp153
Rp154
(dp155
g59
I4
sg60
I0
sg61
I01
sg62
I2
sg63
I00
sg64
I30
sg65
I7
sbag0
(g55
g2
Ntp156
Rp157
(dp158
g59
I65
sg60
I0
sg61
I01
sg62
I2
sg63
I00
sg64
I31
sg65
I7
sbag0
(g55
g2
Ntp159
Rp160
(dp161
g59
I65
sg60
I0
sg61
I01
sg62
I2
sg63
I00
sg64
I32
sg65
I7
sbag0
(g55
g2
Ntp162
Rp163
(dp164
g59
I65
sg60
I0
sg61
I01
sg62
I2
sg63
I00
sg64
I33
sg65
I7
sbag0
(g55
g2
Ntp165
Rp166
(dp167
g59
I4
sg60
I0
sg61
I01
sg62
I2
sg63
I00
sg64
I34
sg65
I7
sbag0
(g55
g2
Ntp168
Rp169
(dp170
g59
I65
sg60
I0
sg61
I01
sg62
I2
sg63
I00
sg64
I35
sg65
I7
sbag0
(g55
g2
Ntp171
Rp172
(dp173
g59
I4
sg60
I0
sg61
I01
sg62
I2
sg63
I00
sg64
I36
sg65
I7
sbag0
(g55
g2
Ntp174
Rp175
(dp176
g59
I65
sg60
I0
sg61
I01
sg62
I2
sg63
I00
sg64
I37
sg65
I7
sbag0
(g55
g2
Ntp177
Rp178
(dp179
g59
I65
sg60
I0
sg61
I01
sg62
I2
sg63
I00
sg64
I38
sg65
I7
sbag0
(g55
g2
Ntp180
Rp181
(dp182
g59
I65
sg60
I0
sg61
I01
sg62
I2
sg63
I00
sg64
I39
sg65
I7
sbag0
(g55
g2
Ntp183
Rp184
(dp185
g59
I65
sg60
I0
sg61
I01
sg62
I2
sg63
I00
sg64
I40
sg65
I7
sbag0
(g55
g2
Ntp186
Rp187
(dp188
g59
I4
sg60
I0
sg61
I01
sg62
I2
sg63
I00
sg64
I41
sg65
I7
sbag0
(g55
g2
Ntp189
Rp190
(dp191
g59
I117
sg60
I0
sg61
I01
sg62
I1
sg63
I00
sg64
I42
sg65
I7
sbag0
(g55
g2
Ntp192
Rp193
(dp194
g59
I65
sg60
I0
sg61
I01
sg62
I2
sg63
I00
sg64
I43
sg65
I7
sbag0
(g55
g2
Ntp195
Rp196
(dp197
g59
I4
sg60
I0
sg61
I01
sg62
I2
sg63
I00
sg64
I44
sg65
I7
sbag0
(g55
g2
Ntp198
Rp199
(dp200
g59
I4
sg60
I0
sg61
I01
sg62
I2
sg63
I00
sg64
I45
sg65
I7
sbag0
(g55
g2
Ntp201
Rp202
(dp203
g59
I65
sg60
I0
sg61
I01
sg62
I2
sg63
I00
sg64
I46
sg65
I7
sbag0
(g55
g2
Ntp204
Rp205
(dp206
g59
I4
sg60
I0
sg61
I01
sg62
I2
sg63
I00
sg64
I47
sg65
I7
sbag0
(g55
g2
Ntp207
Rp208
(dp209
g59
I65
sg60
I0
sg61
I01
sg62
I2
sg63
I00
sg64
I48
sg65
I7
sbag0
(g55
g2
Ntp210
Rp211
(dp212
g59
I4
sg60
I0
sg61
I01
sg62
I2
sg63
I00
sg64
I49
sg65
I7
sbag0
(g55
g2
Ntp213
Rp214
(dp215
g59
I117
sg60
I0
sg61
I01
sg62
I1
sg63
I00
sg64
I50
sg65
I7
sbag0
(g55
g2
Ntp216
Rp217
(dp218
g59
I65
sg60
I0
sg61
I01
sg62
I2
sg63
I00
sg64
I51
sg65
I7
sbag0
(g55
g2
Ntp219
Rp220
(dp221
g59
I65
sg60
I0
sg61
I01
sg62
I2
sg63
I00
sg64
I52
sg65
I7
sbag0
(g55
g2
Ntp222
Rp223
(dp224
g59
I4
sg60
I0
sg61
I01
sg62
I2
sg63
I00
sg64
I53
sg65
I7
sbag0
(g55
g2
Ntp225
Rp226
(dp227
g59
I65
sg60
I0
sg61
I01
sg62
I2
sg63
I00
sg64
I54
sg65
I7
sbag0
(g55
g2
Ntp228
Rp229
(dp230
g59
I117
sg60
I0
sg61
I01
sg62
I1
sg63
I00
sg64
I55
sg65
I7
sbag0
(g55
g2
Ntp231
Rp232
(dp233
g59
I65
sg60
I0
sg61
I01
sg62
I2
sg63
I00
sg64
I56
sg65
I7
sbag0
(g55
g2
Ntp234
Rp235
(dp236
g59
I65
sg60
I0
sg61
I01
sg62
I2
sg63
I00
sg64
I57
sg65
I7
sbag0
(g55
g2
Ntp237
Rp238
(dp239
g59
I117
sg60
I0
sg61
I01
sg62
I1
sg63
I00
sg64
I58
sg65
I7
sbag0
(g55
g2
Ntp240
Rp241
(dp242
g59
I65
sg60
I0
sg61
I01
sg62
I2
sg63
I00
sg64
I59
sg65
I7
sbag0
(g55
g2
Ntp243
Rp244
(dp245
g59
I65
sg60
I0
sg61
I01
sg62
I2
sg63
I00
sg64
I60
sg65
I7
sbag0
(g55
g2
Ntp246
Rp247
(dp248
g59
I4
sg60
I0
sg61
I01
sg62
I2
sg63
I00
sg64
I61
sg65
I7
sbag0
(g55
g2
Ntp249
Rp250
(dp251
g59
I65
sg60
I0
sg61
I01
sg62
I2
sg63
I00
sg64
I62
sg65
I7
sbag0
(g55
g2
Ntp252
Rp253
(dp254
g59
I4
sg60
I0
sg61
I01
sg62
I2
sg63
I00
sg64
I63
sg65
I7
sbag0
(g55
g2
Ntp255
Rp256
(dp257
g59
I65
sg60
I0
sg61
I01
sg62
I2
sg63
I00
sg64
I64
sg65
I7
sbag0
(g55
g2
Ntp258
Rp259
(dp260
g59
Nsg60
I69
sg61
I00
sg62
I2
sg63
I01
sg64
I65
sg65
I7
sbag0
(g55
g2
Ntp261
Rp262
(dp263
g59
I65
sg60
I0
sg61
I01
sg62
I2
sg63
I00
sg64
I66
sg65
I7
sbag0
(g55
g2
Ntp264
Rp265
(dp266
g59
I20
sg60
I0
sg61
I01
sg62
I2
sg63
I00
sg64
I67
sg65
I7
sbag0
(g55
g2
Ntp267
Rp268
(dp269
g59
I65
sg60
I0
sg61
I01
sg62
I2
sg63
I00
sg64
I68
sg65
I7
sbag0
(g55
g2
Ntp270
Rp271
(dp272
g59
I65
sg60
I0
sg61
I01
sg62
I2
sg63
I00
sg64
I69
sg65
I7
sbag0
(g55
g2
Ntp273
Rp274
(dp275
g59
I4
sg60
I0
sg61
I01
sg62
I2
sg63
I00
sg64
I70
sg65
I7
sbag0
(g55
g2
Ntp276
Rp277
(dp278
g59
I65
sg60
I0
sg61
I01
sg62
I2
sg63
I00
sg64
I71
sg65
I7
sbag0
(g55
g2
Ntp279
Rp280
(dp281
g59
I65
sg60
I0
sg61
I01
sg62
I2
sg63
I00
sg64
I72
sg65
I7
sbag0
(g55
g2
Ntp282
Rp283
(dp284
g59
I117
sg60
I0
sg61
I01
sg62
I1
sg63
I00
sg64
I73
sg65
I7
sbag0
(g55
g2
Ntp285
Rp286
(dp287
g59
I65
sg60
I0
sg61
I01
sg62
I2
sg63
I00
sg64
I74
sg65
I7
sbag0
(g55
g2
Ntp288
Rp289
(dp290
g59
I117
sg60
I0
sg61
I01
sg62
I1
sg63
I00
sg64
I75
sg65
I7
sbag0
(g55
g2
Ntp291
Rp292
(dp293
g59
I65
sg60
I0
sg61
I01
sg62
I2
sg63
I00
sg64
I76
sg65
I7
sbag0
(g55
g2
Ntp294
Rp295
(dp296
g59
I4
sg60
I0
sg61
I01
sg62
I2
sg63
I00
sg64
I77
sg65
I7
sbag0
(g55
g2
Ntp297
Rp298
(dp299
g59
I4
sg60
I0
sg61
I01
sg62
I2
sg63
I00
sg64
I78
sg65
I7
sbag0
(g55
g2
Ntp300
Rp301
(dp302
g59
I4
sg60
I0
sg61
I01
sg62
I2
sg63
I00
sg64
I79
sg65
I7
sbag0
(g55
g2
Ntp303
Rp304
(dp305
g59
I117
sg60
I0
sg61
I01
sg62
I1
sg63
I00
sg64
I80
sg65
I7
sbag0
(g55
g2
Ntp306
Rp307
(dp308
g59
Nsg60
I1
sg61
I00
sg62
I4
sg63
I01
sg64
I81
sg65
I7
sbag0
(g55
g2
Ntp309
Rp310
(dp311
g59
I65
sg60
I0
sg61
I01
sg62
I2
sg63
I00
sg64
I82
sg65
I7
sbag0
(g55
g2
Ntp312
Rp313
(dp314
g59
I81
sg60
I0
sg61
I01
sg62
I4
sg63
I00
sg64
I83
sg65
I7
sbag0
(g55
g2
Ntp315
Rp316
(dp317
g59
I4
sg60
I0
sg61
I01
sg62
I2
sg63
I00
sg64
I84
sg65
I7
sbag0
(g55
g2
Ntp318
Rp319
(dp320
g59
I117
sg60
I0
sg61
I01
sg62
I1
sg63
I00
sg64
I85
sg65
I7
sbag0
(g55
g2
Ntp321
Rp322
(dp323
g59
I65
sg60
I0
sg61
I01
sg62
I2
sg63
I00
sg64
I86
sg65
I7
sbag0
(g55
g2
Ntp324
Rp325
(dp326
g59
I117
sg60
I0
sg61
I01
sg62
I1
sg63
I00
sg64
I87
sg65
I7
sbag0
(g55
g2
Ntp327
Rp328
(dp329
g59
I65
sg60
I0
sg61
I01
sg62
I2
sg63
I00
sg64
I88
sg65
I7
sbag0
(g55
g2
Ntp330
Rp331
(dp332
g59
I65
sg60
I0
sg61
I01
sg62
I2
sg63
I00
sg64
I89
sg65
I7
sbag0
(g55
g2
Ntp333
Rp334
(dp335
g59
I65
sg60
I0
sg61
I01
sg62
I2
sg63
I00
sg64
I90
sg65
I7
sbag0
(g55
g2
Ntp336
Rp337
(dp338
g59
I65
sg60
I0
sg61
I01
sg62
I2
sg63
I00
sg64
I91
sg65
I7
sbag0
(g55
g2
Ntp339
Rp340
(dp341
g59
I65
sg60
I0
sg61
I01
sg62
I2
sg63
I00
sg64
I92
sg65
I7
sbag0
(g55
g2
Ntp342
Rp343
(dp344
g59
I65
sg60
I0
sg61
I01
sg62
I2
sg63
I00
sg64
I93
sg65
I7
sbag0
(g55
g2
Ntp345
Rp346
(dp347
g59
I4
sg60
I0
sg61
I01
sg62
I2
sg63
I00
sg64
I94
sg65
I7
sbag0
(g55
g2
Ntp348
Rp349
(dp350
g59
I65
sg60
I0
sg61
I01
sg62
I2
sg63
I00
sg64
I95
sg65
I7
sbag0
(g55
g2
Ntp351
Rp352
(dp353
g59
I65
sg60
I0
sg61
I01
sg62
I2
sg63
I00
sg64
I96
sg65
I7
sbag0
(g55
g2
Ntp354
Rp355
(dp356
g59
I65
sg60
I0
sg61
I01
sg62
I2
sg63
I00
sg64
I97
sg65
I7
sbag0
(g55
g2
Ntp357
Rp358
(dp359
g59
I65
sg60
I0
sg61
I01
sg62
I2
sg63
I00
sg64
I98
sg65
I7
sbag0
(g55
g2
Ntp360
Rp361
(dp362
g59
I65
sg60
I0
sg61
I01
sg62
I2
sg63
I00
sg64
I99
sg65
I7
sbag0
(g55
g2
Ntp363
Rp364
(dp365
g59
I65
sg60
I0
sg61
I01
sg62
I2
sg63
I00
sg64
I100
sg65
I7
sbag0
(g55
g2
Ntp366
Rp367
(dp368
g59
I65
sg60
I0
sg61
I01
sg62
I2
sg63
I00
sg64
I101
sg65
I7
sbag0
(g55
g2
Ntp369
Rp370
(dp371
g59
I65
sg60
I0
sg61
I01
sg62
I2
sg63
I00
sg64
I102
sg65
I7
sbag0
(g55
g2
Ntp372
Rp373
(dp374
g59
I65
sg60
I0
sg61
I01
sg62
I2
sg63
I00
sg64
I103
sg65
I7
sbag0
(g55
g2
Ntp375
Rp376
(dp377
g59
I65
sg60
I0
sg61
I01
sg62
I2
sg63
I00
sg64
I104
sg65
I7
sbag0
(g55
g2
Ntp378
Rp379
(dp380
g59
I4
sg60
I0
sg61
I01
sg62
I2
sg63
I00
sg64
I105
sg65
I7
sbag0
(g55
g2
Ntp381
Rp382
(dp383
g59
I4
sg60
I0
sg61
I01
sg62
I2
sg63
I00
sg64
I106
sg65
I7
sbag0
(g55
g2
Ntp384
Rp385
(dp386
g59
I4
sg60
I0
sg61
I01
sg62
I2
sg63
I00
sg64
I107
sg65
I7
sbag0
(g55
g2
Ntp387
Rp388
(dp389
g59
I65
sg60
I0
sg61
I01
sg62
I2
sg63
I00
sg64
I108
sg65
I7
sbag0
(g55
g2
Ntp390
Rp391
(dp392
g59
I4
sg60
I0
sg61
I01
sg62
I2
sg63
I00
sg64
I109
sg65
I7
sbag0
(g55
g2
Ntp393
Rp394
(dp395
g59
I4
sg60
I0
sg61
I01
sg62
I2
sg63
I00
sg64
I110
sg65
I7
sbag0
(g55
g2
Ntp396
Rp397
(dp398
g59
I4
sg60
I0
sg61
I01
sg62
I2
sg63
I00
sg64
I111
sg65
I7
sbag0
(g55
g2
Ntp399
Rp400
(dp401
g59
I117
sg60
I0
sg61
I01
sg62
I1
sg63
I00
sg64
I112
sg65
I7
sbag0
(g55
g2
Ntp402
Rp403
(dp404
g59
Nsg60
I0
sg61
I00
sg62
I5
sg63
I01
sg64
I113
sg65
I7
sbag0
(g55
g2
Ntp405
Rp406
(dp407
g59
I65
sg60
I0
sg61
I01
sg62
I2
sg63
I00
sg64
I114
sg65
I7
sbag0
(g55
g2
Ntp408
Rp409
(dp410
g59
I117
sg60
I0
sg61
I01
sg62
I1
sg63
I00
sg64
I115
sg65
I7
sbag0
(g55
g2
Ntp411
Rp412
(dp413
g59
I4
sg60
I0
sg61
I01
sg62
I2
sg63
I00
sg64
I116
sg65
I7
sbag0
(g55
g2
Ntp414
Rp415
(dp416
g59
Nsg60
I18
sg61
I00
sg62
I1
sg63
I01
sg64
I117
sg65
I7
sbag0
(g55
g2
Ntp417
Rp418
(dp419
g59
I65
sg60
I0
sg61
I01
sg62
I2
sg63
I00
sg64
I118
sg65
I7
sbag0
(g55
g2
Ntp420
Rp421
(dp422
g59
I4
sg60
I0
sg61
I01
sg62
I2
sg63
I00
sg64
I119
sg65
I7
sbag0
(g55
g2
Ntp423
Rp424
(dp425
g59
I117
sg60
I0
sg61
I01
sg62
I1
sg63
I00
sg64
I120
sg65
I7
sbag0
(g55
g2
Ntp426
Rp427
(dp428
g59
I117
sg60
I0
sg61
I01
sg62
I1
sg63
I00
sg64
I121
sg65
I7
sbag0
(g55
g2
Ntp429
Rp430
(dp431
g59
I65
sg60
I0
sg61
I01
sg62
I2
sg63
I00
sg64
I122
sg65
I7
sbag0
(g55
g2
Ntp432
Rp433
(dp434
g59
I117
sg60
I0
sg61
I01
sg62
I1
sg63
I00
sg64
I123
sg65
I7
sbag0
(g55
g2
Ntp435
Rp436
(dp437
g59
I4
sg60
I0
sg61
I01
sg62
I2
sg63
I00
sg64
I124
sg65
I7
sbag0
(g55
g2
Ntp438
Rp439
(dp440
g59
I4
sg60
I0
sg61
I01
sg62
I2
sg63
I00
sg64
I125
sg65
I7
sbag0
(g55
g2
Ntp441
Rp442
(dp443
g59
I65
sg60
I0
sg61
I01
sg62
I2
sg63
I00
sg64
I126
sg65
I7
sbag0
(g55
g2
Ntp444
Rp445
(dp446
g59
I4
sg60
I0
sg61
I01
sg62
I2
sg63
I00
sg64
I127
sg65
I7
sbasS'linksList'
p447
(lp448
(lp449
I5
aI2
aI6
aa(lp450
I4
aI6
aI1
aa(lp451
I4
aI6
aI0
aa(lp452
I1
aI0
aI5
aa(lp453
I2
aI4
aI1
aa(lp454
I1
aI3
aI2
aa(lp455
I6
aI3
aI2
aasb.