ccopy_reg
_reconstructor
p0
(cNK_Network.Automata
NK_Automata
p1
c__builtin__
object
p2
Ntp3
Rp4
(dp5
S'stability'
p6
F0.28125
sS'stateSpan'
p7
(dp8
I0
I0
sI1
I5
sI2
I2
sI3
I3
sI4
I2
sI5
I5
sI6
I7
sI7
I3
ssS'attractorDict'
p9
(dp10
I1
(lp11
I1
aI0
asI2
(lp12
I1
aI1
asI3
(lp13
I1
aI1
asI4
(lp14
I1
aI2
assS'K'
p15
I3
sS'ordinalNumber'
p16
I-1
sS'N'
p17
I3
sS'basinAmount'
p18
I4
sS'functionsList'
p19
(lp20
g0
(cNK_Network.BoolFunction
BoolFunction
p21
g2
Ntp22
Rp23
(dp24
S'valuesString'
p25
S'00011010'
p26
sg15
I3
sbag0
(g21
g2
Ntp27
Rp28
(dp29
g25
S'01110101'
p30
sg15
I3
sbag0
(g21
g2
Ntp31
Rp32
(dp33
g25
S'01010111'
p34
sg15
I3
sbasS'expectedReturnTime'
p35
F1.25
sS'stateList'
p36
(lp37
g0
(cNK_Network.State
State
p38
g2
Ntp39
Rp40
(dp41
S'firstAttractorStateNumber'
p42
NsS'weight'
p43
I0
sS'inBasin'
p44
I00
sS'basinNumber'
p45
I1
sS'inAttractor'
p46
I01
sS'stateNumber'
p47
I0
sS'dimension'
p48
I3
sbag0
(g38
g2
Ntp49
Rp50
(dp51
g42
I5
sg43
I0
sg44
I01
sg45
I2
sg46
I00
sg47
I1
sg48
I3
sbag0
(g38
g2
Ntp52
Rp53
(dp54
g42
Nsg43
I1
sg44
I00
sg45
I3
sg46
I01
sg47
I2
sg48
I3
sbag0
(g38
g2
Ntp55
Rp56
(dp57
g42
Nsg43
I2
sg44
I00
sg45
I4
sg46
I01
sg47
I3
sg48
I3
sbag0
(g38
g2
Ntp58
Rp59
(dp60
g42
I2
sg43
I0
sg44
I01
sg45
I3
sg46
I00
sg47
I4
sg48
I3
sbag0
(g38
g2
Ntp61
Rp62
(dp63
g42
Nsg43
I1
sg44
I00
sg45
I2
sg46
I01
sg47
I5
sg48
I3
sbag0
(g38
g2
Ntp64
Rp65
(dp66
g42
I3
sg43
I0
sg44
I01
sg45
I4
sg46
I00
sg47
I6
sg48
I3
sbag0
(g38
g2
Ntp67
Rp68
(dp69
g42
I3
sg43
I0
sg44
I01
sg45
I4
sg46
I00
sg47
I7
sg48
I3
sbasS'linksList'
p70
(lp71
(lp72
I2
aI0
aI1
aa(lp73
I2
aI0
aI1
aa(lp74
I1
aI0
aI2
aasb.