ccopy_reg
_reconstructor
p0
(cNK_Network.Automata
NK_Automata
p1
c__builtin__
object
p2
Ntp3
Rp4
(dp5
S'stability'
p6
F0.5
sS'stateSpan'
p7
(dp8
I0
I0
sI1
I1
ssS'attractorDict'
p9
(dp10
I1
(lp11
I1
aI0
asI2
(lp12
I1
aI0
assS'K'
p13
I1
sS'ordinalNumber'
p14
I-1
sS'N'
p15
I1
sS'basinAmount'
p16
I2
sS'functionsList'
p17
(lp18
g0
(cNK_Network.BoolFunction
BoolFunction
p19
g2
Ntp20
Rp21
(dp22
S'valuesString'
p23
S'01'
p24
sg13
I1
sbasS'expectedReturnTime'
p25
I0
sS'stateList'
p26
(lp27
g0
(cNK_Network.State
State
p28
g2
Ntp29
Rp30
(dp31
S'firstAttractorStateNumber'
p32
NsS'weight'
p33
I0
sS'inBasin'
p34
I00
sS'basinNumber'
p35
I1
sS'inAttractor'
p36
I01
sS'stateNumber'
p37
I0
sS'dimension'
p38
I1
sbag0
(g28
g2
Ntp39
Rp40
(dp41
g32
Nsg33
I0
sg34
I00
sg35
I2
sg36
I01
sg37
I1
sg38
I1
sbasS'linksList'
p42
(lp43
(lp44
I0
aasb.