ccopy_reg
_reconstructor
p0
(cNK_Network.Automata
NK_Automata
p1
c__builtin__
object
p2
Ntp3
Rp4
(dp5
S'stability'
p6
F0.830078125
sS'stateSpan'
p7
(dp8
S'110000'
p9
S'000001'
p10
sS'110001'
p11
S'000000'
p12
sS'110101'
p13
S'101100'
p14
sS'110100'
p15
S'100001'
p16
sS'010100'
p17
S'010100'
p18
sS'010101'
p19
S'001000'
p20
sS'001100'
p21
S'010111'
p22
sS'001101'
p23
S'100011'
p24
sS'011110'
p25
S'011111'
p26
sS'011111'
p27
S'111001'
p28
sS'001001'
p29
S'000111'
p30
sS'001000'
p31
S'010001'
p32
sS'011011'
p33
S'011101'
p34
sS'011010'
p35
S'010001'
p36
sS'000110'
p37
S'011111'
p38
sS'000111'
p39
S'011011'
p40
sS'000011'
p41
S'011101'
p42
sS'000010'
p43
S'011001'
p44
sS'100100'
p45
S'100101'
p46
sS'100101'
p47
S'111100'
p48
sS'111100'
p49
S'000011'
p50
sS'111101'
p51
S'000110'
p52
sS'100010'
p53
S'001100'
p54
sS'100011'
p55
S'011000'
p56
sS'101110'
p57
S'001110'
p58
sS'101111'
p59
S'001100'
p60
sS'111001'
p61
S'000010'
p62
sS'111000'
p63
S'000001'
p64
sS'101011'
p65
S'001000'
p66
sS'101010'
p67
S'000100'
p68
sS'110011'
p69
S'001000'
p70
sS'110010'
p71
S'001000'
p72
sS'010010'
p73
S'011001'
p74
sS'010011'
p75
S'001101'
p76
sS'010111'
p77
S'001011'
p78
sS'010110'
p79
S'011111'
p80
sS'110110'
p81
S'101010'
p82
sS'110111'
p83
S'101110'
p84
sS'011000'
p85
S'010001'
p86
sS'011001'
p87
S'010111'
p88
sS'001111'
p89
S'101001'
p90
sS'001110'
p91
S'011111'
p92
sS'011101'
p93
S'110011'
p94
sS'011100'
p95
S'010111'
p96
sS'001010'
p97
S'010001'
p98
sS'001011'
p99
S'001101'
p100
sS'101101'
p101
S'000110'
p102
sS'000000'
p103
S'010000'
p104
sS'000001'
p105
S'010100'
p106
sS'100111'
p107
S'111110'
p108
sS'100110'
p109
S'101110'
p110
sS'000101'
p111
S'011000'
p112
sS'000100'
p113
S'010100'
p114
sS'111111'
p115
S'001100'
p116
sS'111110'
p117
S'001010'
p118
sS'100001'
p119
S'010000'
p120
sS'100000'
p121
S'000101'
p122
sS'010001'
p123
S'000100'
p124
sS'010000'
p125
S'010000'
p126
sS'101100'
p127
S'000111'
p128
sS'111010'
p129
S'000000'
p130
sS'111011'
p131
S'001000'
p132
sS'101000'
p133
S'000101'
p134
sS'101001'
p135
S'000010'
p136
ssS'attractorDict'
p137
(dp138
I1
(lp139
I1
aI5
asI2
(lp140
I1
aI57
assS'K'
p141
I4
sS'ordinalNumber'
p142
I-1
sS'N'
p143
I6
sS'basinAmount'
p144
I2
sS'functionsList'
p145
(lp146
g0
(cNK_Network.BoolFunction
BoolFunction
p147
g2
Ntp148
Rp149
(dp150
S'valuesString'
p151
S'0000001000010010'
p152
sg141
I4
sbag0
(g147
g2
Ntp153
Rp154
(dp155
g151
S'1111100100001000'
p156
sg141
I4
sbag0
(g147
g2
Ntp157
Rp158
(dp159
g151
S'0001111100000111'
p160
sg141
I4
sbag0
(g147
g2
Ntp161
Rp162
(dp163
g151
S'0110110100101001'
p164
sg141
I4
sbag0
(g147
g2
Ntp165
Rp166
(dp167
g151
S'0000010000111110'
p168
sg141
I4
sbag0
(g147
g2
Ntp169
Rp170
(dp171
g151
S'0011100011111000'
p172
sg141
I4
sbasS'expectedReturnTime'
p173
F6.5
sS'stateList'
p174
(lp175
g0
(cNK_Network.State
State
p176
g2
Ntp177
Rp178
(dp179
S'firstAttractorStateNumber'
p180
I16
sS'weight'
p181
I0
sS'inBasin'
p182
I01
sS'basinNumber'
p183
I1
sS'inAttractor'
p184
I00
sS'stateNumber'
p185
I0
sS'dimension'
p186
I6
sbag0
(g176
g2
Ntp187
Rp188
(dp189
g180
I20
sg181
I0
sg182
I01
sg183
I2
sg184
I00
sg185
I1
sg186
I6
sbag0
(g176
g2
Ntp190
Rp191
(dp192
g180
I20
sg181
I0
sg182
I01
sg183
I2
sg184
I00
sg185
I2
sg186
I6
sbag0
(g176
g2
Ntp193
Rp194
(dp195
g180
I20
sg181
I0
sg182
I01
sg183
I2
sg184
I00
sg185
I3
sg186
I6
sbag0
(g176
g2
Ntp196
Rp197
(dp198
g180
I20
sg181
I0
sg182
I01
sg183
I2
sg184
I00
sg185
I4
sg186
I6
sbag0
(g176
g2
Ntp199
Rp200
(dp201
g180
I20
sg181
I0
sg182
I01
sg183
I2
sg184
I00
sg185
I5
sg186
I6
sbag0
(g176
g2
Ntp202
Rp203
(dp204
g180
I20
sg181
I0
sg182
I01
sg183
I2
sg184
I00
sg185
I6
sg186
I6
sbag0
(g176
g2
Ntp205
Rp206
(dp207
g180
I20
sg181
I0
sg182
I01
sg183
I2
sg184
I00
sg185
I7
sg186
I6
sbag0
(g176
g2
Ntp208
Rp209
(dp210
g180
I20
sg181
I0
sg182
I01
sg183
I2
sg184
I00
sg185
I8
sg186
I6
sbag0
(g176
g2
Ntp211
Rp212
(dp213
g180
I20
sg181
I0
sg182
I01
sg183
I2
sg184
I00
sg185
I9
sg186
I6
sbag0
(g176
g2
Ntp214
Rp215
(dp216
g180
I20
sg181
I0
sg182
I01
sg183
I2
sg184
I00
sg185
I10
sg186
I6
sbag0
(g176
g2
Ntp217
Rp218
(dp219
g180
I20
sg181
I0
sg182
I01
sg183
I2
sg184
I00
sg185
I11
sg186
I6
sbag0
(g176
g2
Ntp220
Rp221
(dp222
g180
I20
sg181
I0
sg182
I01
sg183
I2
sg184
I00
sg185
I12
sg186
I6
sbag0
(g176
g2
Ntp223
Rp224
(dp225
g180
I20
sg181
I0
sg182
I01
sg183
I2
sg184
I00
sg185
I13
sg186
I6
sbag0
(g176
g2
Ntp226
Rp227
(dp228
g180
I20
sg181
I0
sg182
I01
sg183
I2
sg184
I00
sg185
I14
sg186
I6
sbag0
(g176
g2
Ntp229
Rp230
(dp231
g180
I20
sg181
I0
sg182
I01
sg183
I2
sg184
I00
sg185
I15
sg186
I6
sbag0
(g176
g2
Ntp232
Rp233
(dp234
g180
Nsg181
I5
sg182
I00
sg183
I1
sg184
I01
sg185
I16
sg186
I6
sbag0
(g176
g2
Ntp235
Rp236
(dp237
g180
I20
sg181
I0
sg182
I01
sg183
I2
sg184
I00
sg185
I17
sg186
I6
sbag0
(g176
g2
Ntp238
Rp239
(dp240
g180
I20
sg181
I0
sg182
I01
sg183
I2
sg184
I00
sg185
I18
sg186
I6
sbag0
(g176
g2
Ntp241
Rp242
(dp243
g180
I20
sg181
I0
sg182
I01
sg183
I2
sg184
I00
sg185
I19
sg186
I6
sbag0
(g176
g2
Ntp244
Rp245
(dp246
g180
Nsg181
I57
sg182
I00
sg183
I2
sg184
I01
sg185
I20
sg186
I6
sbag0
(g176
g2
Ntp247
Rp248
(dp249
g180
I20
sg181
I0
sg182
I01
sg183
I2
sg184
I00
sg185
I21
sg186
I6
sbag0
(g176
g2
Ntp250
Rp251
(dp252
g180
I20
sg181
I0
sg182
I01
sg183
I2
sg184
I00
sg185
I22
sg186
I6
sbag0
(g176
g2
Ntp253
Rp254
(dp255
g180
I20
sg181
I0
sg182
I01
sg183
I2
sg184
I00
sg185
I23
sg186
I6
sbag0
(g176
g2
Ntp256
Rp257
(dp258
g180
I20
sg181
I0
sg182
I01
sg183
I2
sg184
I00
sg185
I24
sg186
I6
sbag0
(g176
g2
Ntp259
Rp260
(dp261
g180
I20
sg181
I0
sg182
I01
sg183
I2
sg184
I00
sg185
I25
sg186
I6
sbag0
(g176
g2
Ntp262
Rp263
(dp264
g180
I20
sg181
I0
sg182
I01
sg183
I2
sg184
I00
sg185
I26
sg186
I6
sbag0
(g176
g2
Ntp265
Rp266
(dp267
g180
I20
sg181
I0
sg182
I01
sg183
I2
sg184
I00
sg185
I27
sg186
I6
sbag0
(g176
g2
Ntp268
Rp269
(dp270
g180
I20
sg181
I0
sg182
I01
sg183
I2
sg184
I00
sg185
I28
sg186
I6
sbag0
(g176
g2
Ntp271
Rp272
(dp273
g180
I20
sg181
I0
sg182
I01
sg183
I2
sg184
I00
sg185
I29
sg186
I6
sbag0
(g176
g2
Ntp274
Rp275
(dp276
g180
I20
sg181
I0
sg182
I01
sg183
I2
sg184
I00
sg185
I30
sg186
I6
sbag0
(g176
g2
Ntp277
Rp278
(dp279
g180
I20
sg181
I0
sg182
I01
sg183
I2
sg184
I00
sg185
I31
sg186
I6
sbag0
(g176
g2
Ntp280
Rp281
(dp282
g180
I20
sg181
I0
sg182
I01
sg183
I2
sg184
I00
sg185
I32
sg186
I6
sbag0
(g176
g2
Ntp283
Rp284
(dp285
g180
I16
sg181
I0
sg182
I01
sg183
I1
sg184
I00
sg185
I33
sg186
I6
sbag0
(g176
g2
Ntp286
Rp287
(dp288
g180
I20
sg181
I0
sg182
I01
sg183
I2
sg184
I00
sg185
I34
sg186
I6
sbag0
(g176
g2
Ntp289
Rp290
(dp291
g180
I20
sg181
I0
sg182
I01
sg183
I2
sg184
I00
sg185
I35
sg186
I6
sbag0
(g176
g2
Ntp292
Rp293
(dp294
g180
I20
sg181
I0
sg182
I01
sg183
I2
sg184
I00
sg185
I36
sg186
I6
sbag0
(g176
g2
Ntp295
Rp296
(dp297
g180
I20
sg181
I0
sg182
I01
sg183
I2
sg184
I00
sg185
I37
sg186
I6
sbag0
(g176
g2
Ntp298
Rp299
(dp300
g180
I20
sg181
I0
sg182
I01
sg183
I2
sg184
I00
sg185
I38
sg186
I6
sbag0
(g176
g2
Ntp301
Rp302
(dp303
g180
I20
sg181
I0
sg182
I01
sg183
I2
sg184
I00
sg185
I39
sg186
I6
sbag0
(g176
g2
Ntp304
Rp305
(dp306
g180
I20
sg181
I0
sg182
I01
sg183
I2
sg184
I00
sg185
I40
sg186
I6
sbag0
(g176
g2
Ntp307
Rp308
(dp309
g180
I20
sg181
I0
sg182
I01
sg183
I2
sg184
I00
sg185
I41
sg186
I6
sbag0
(g176
g2
Ntp310
Rp311
(dp312
g180
I20
sg181
I0
sg182
I01
sg183
I2
sg184
I00
sg185
I42
sg186
I6
sbag0
(g176
g2
Ntp313
Rp314
(dp315
g180
I20
sg181
I0
sg182
I01
sg183
I2
sg184
I00
sg185
I43
sg186
I6
sbag0
(g176
g2
Ntp316
Rp317
(dp318
g180
I20
sg181
I0
sg182
I01
sg183
I2
sg184
I00
sg185
I44
sg186
I6
sbag0
(g176
g2
Ntp319
Rp320
(dp321
g180
I20
sg181
I0
sg182
I01
sg183
I2
sg184
I00
sg185
I45
sg186
I6
sbag0
(g176
g2
Ntp322
Rp323
(dp324
g180
I20
sg181
I0
sg182
I01
sg183
I2
sg184
I00
sg185
I46
sg186
I6
sbag0
(g176
g2
Ntp325
Rp326
(dp327
g180
I20
sg181
I0
sg182
I01
sg183
I2
sg184
I00
sg185
I47
sg186
I6
sbag0
(g176
g2
Ntp328
Rp329
(dp330
g180
I20
sg181
I0
sg182
I01
sg183
I2
sg184
I00
sg185
I48
sg186
I6
sbag0
(g176
g2
Ntp331
Rp332
(dp333
g180
I16
sg181
I0
sg182
I01
sg183
I1
sg184
I00
sg185
I49
sg186
I6
sbag0
(g176
g2
Ntp334
Rp335
(dp336
g180
I20
sg181
I0
sg182
I01
sg183
I2
sg184
I00
sg185
I50
sg186
I6
sbag0
(g176
g2
Ntp337
Rp338
(dp339
g180
I20
sg181
I0
sg182
I01
sg183
I2
sg184
I00
sg185
I51
sg186
I6
sbag0
(g176
g2
Ntp340
Rp341
(dp342
g180
I16
sg181
I0
sg182
I01
sg183
I1
sg184
I00
sg185
I52
sg186
I6
sbag0
(g176
g2
Ntp343
Rp344
(dp345
g180
I20
sg181
I0
sg182
I01
sg183
I2
sg184
I00
sg185
I53
sg186
I6
sbag0
(g176
g2
Ntp346
Rp347
(dp348
g180
I20
sg181
I0
sg182
I01
sg183
I2
sg184
I00
sg185
I54
sg186
I6
sbag0
(g176
g2
Ntp349
Rp350
(dp351
g180
I20
sg181
I0
sg182
I01
sg183
I2
sg184
I00
sg185
I55
sg186
I6
sbag0
(g176
g2
Ntp352
Rp353
(dp354
g180
I20
sg181
I0
sg182
I01
sg183
I2
sg184
I00
sg185
I56
sg186
I6
sbag0
(g176
g2
Ntp355
Rp356
(dp357
g180
I20
sg181
I0
sg182
I01
sg183
I2
sg184
I00
sg185
I57
sg186
I6
sbag0
(g176
g2
Ntp358
Rp359
(dp360
g180
I16
sg181
I0
sg182
I01
sg183
I1
sg184
I00
sg185
I58
sg186
I6
sbag0
(g176
g2
Ntp361
Rp362
(dp363
g180
I20
sg181
I0
sg182
I01
sg183
I2
sg184
I00
sg185
I59
sg186
I6
sbag0
(g176
g2
Ntp364
Rp365
(dp366
g180
I20
sg181
I0
sg182
I01
sg183
I2
sg184
I00
sg185
I60
sg186
I6
sbag0
(g176
g2
Ntp367
Rp368
(dp369
g180
I20
sg181
I0
sg182
I01
sg183
I2
sg184
I00
sg185
I61
sg186
I6
sbag0
(g176
g2
Ntp370
Rp371
(dp372
g180
I20
sg181
I0
sg182
I01
sg183
I2
sg184
I00
sg185
I62
sg186
I6
sbag0
(g176
g2
Ntp373
Rp374
(dp375
g180
I20
sg181
I0
sg182
I01
sg183
I2
sg184
I00
sg185
I63
sg186
I6
sbasS'linksList'
p376
(lp377
(lp378
I5
aI0
aI3
aI2
aa(lp379
I0
aI5
aI2
aI1
aa(lp380
I2
aI4
aI3
aI5
aa(lp381
I1
aI3
aI5
aI0
aa(lp382
I3
aI2
aI4
aI5
aa(lp383
I2
aI0
aI4
aI5
aasb.