ccopy_reg
_reconstructor
p0
(cNK_Network.Automata
NK_Automata
p1
c__builtin__
object
p2
Ntp3
Rp4
(dp5
S'stability'
p6
F0.426513671875
sS'stateSpan'
p7
(dp8
I0
I102
sI1
I67
sI2
I119
sI3
I91
sI4
I126
sI5
I83
sI6
I109
sI7
I77
sI8
I106
sI9
I67
sI10
I102
sI11
I74
sI12
I70
sI13
I79
sI14
I72
sI15
I76
sI16
I47
sI17
I66
sI18
I46
sI19
I67
sI20
I39
sI21
I66
sI22
I60
sI23
I85
sI24
I35
sI25
I74
sI26
I39
sI27
I74
sI28
I15
sI29
I70
sI30
I25
sI31
I92
sI32
I20
sI33
I81
sI34
I7
sI35
I79
sI36
I40
sI37
I97
sI38
I47
sI39
I111
sI40
I24
sI41
I49
sI42
I18
sI43
I58
sI44
I32
sI45
I13
sI46
I62
sI47
I26
sI48
I79
sI49
I2
sI50
I78
sI51
I7
sI52
I115
sI53
I50
sI54
I124
sI55
I53
sI56
I67
sI57
I106
sI58
I83
sI59
I122
sI60
I107
sI61
I70
sI62
I125
sI63
I88
sI64
I6
sI65
I67
sI66
I20
sI67
I88
sI68
I28
sI69
I81
sI70
I14
sI71
I78
sI72
I74
sI73
I98
sI74
I69
sI75
I105
sI76
I100
sI77
I108
sI78
I107
sI79
I111
sI80
I79
sI81
I66
sI82
I77
sI83
I65
sI84
I69
sI85
I64
sI86
I95
sI87
I87
sI88
I3
sI89
I42
sI90
I4
sI91
I41
sI92
I45
sI93
I36
sI94
I58
sI95
I63
sI96
I54
sI97
I115
sI98
I38
sI99
I110
sI100
I42
sI101
I67
sI102
I44
sI103
I76
sI104
I58
sI105
I82
sI106
I51
sI107
I91
sI108
I34
sI109
I78
sI110
I61
sI111
I89
sI112
I111
sI113
I98
sI114
I111
sI115
I103
sI116
I113
sI117
I80
sI118
I125
sI119
I85
sI120
I99
sI121
I74
sI122
I114
sI123
I91
sI124
I105
sI125
I68
sI126
I124
sI127
I89
ssS'attractorDict'
p9
(dp10
I1
(lp11
I10
aI63
asI2
(lp12
I11
aI26
asI3
(lp13
I4
aI13
asI4
(lp14
I1
aI0
assS'K'
p15
I5
sS'ordinalNumber'
p16
I-1
sS'N'
p17
I7
sS'basinAmount'
p18
I4
sS'functionsList'
p19
(lp20
g0
(cNK_Network.BoolFunction
BoolFunction
p21
g2
Ntp22
Rp23
(dp24
S'valuesString'
p25
S'11011111000010110010111011110111'
p26
sg15
I5
sbag0
(g21
g2
Ntp27
Rp28
(dp29
g25
S'10001001001101101011001000101110'
p30
sg15
I5
sbag0
(g21
g2
Ntp31
Rp32
(dp33
g25
S'00101101000000011000000100111011'
p34
sg15
I5
sbag0
(g21
g2
Ntp35
Rp36
(dp37
g25
S'01100000011110101001011000111111'
p38
sg15
I5
sbag0
(g21
g2
Ntp39
Rp40
(dp41
g25
S'11110001011001011011001100010100'
p42
sg15
I5
sbag0
(g21
g2
Ntp43
Rp44
(dp45
g25
S'11111100110000110111111101101000'
p46
sg15
I5
sbag0
(g21
g2
Ntp47
Rp48
(dp49
g25
S'01110100010000111001101110101001'
p50
sg15
I5
sbasS'expectedReturnTime'
p51
F5.264705882352941
sS'stateList'
p52
(lp53
g0
(cNK_Network.State
State
p54
g2
Ntp55
Rp56
(dp57
S'firstAttractorStateNumber'
p58
I42
sS'weight'
p59
I0
sS'inBasin'
p60
I01
sS'basinNumber'
p61
I1
sS'inAttractor'
p62
I00
sS'stateNumber'
p63
I0
sS'dimension'
p64
I7
sbag0
(g54
g2
Ntp65
Rp66
(dp67
g58
I91
sg59
I0
sg60
I01
sg61
I2
sg62
I00
sg63
I1
sg64
I7
sbag0
(g54
g2
Ntp68
Rp69
(dp70
g58
Nsg59
I0
sg60
I00
sg61
I2
sg62
I01
sg63
I2
sg64
I7
sbag0
(g54
g2
Ntp71
Rp72
(dp73
g58
I91
sg59
I0
sg60
I01
sg61
I2
sg62
I00
sg63
I3
sg64
I7
sbag0
(g54
g2
Ntp74
Rp75
(dp76
g58
I77
sg59
I0
sg60
I01
sg61
I3
sg62
I00
sg63
I4
sg64
I7
sbag0
(g54
g2
Ntp77
Rp78
(dp79
g58
I91
sg59
I0
sg60
I01
sg61
I2
sg62
I00
sg63
I5
sg64
I7
sbag0
(g54
g2
Ntp80
Rp81
(dp82
g58
Nsg59
I0
sg60
I00
sg61
I2
sg62
I01
sg63
I6
sg64
I7
sbag0
(g54
g2
Ntp83
Rp84
(dp85
g58
Nsg59
I4
sg60
I00
sg61
I3
sg62
I01
sg63
I7
sg64
I7
sbag0
(g54
g2
Ntp86
Rp87
(dp88
g58
I7
sg59
I0
sg60
I01
sg61
I3
sg62
I00
sg63
I8
sg64
I7
sbag0
(g54
g2
Ntp89
Rp90
(dp91
g58
I91
sg59
I0
sg60
I01
sg61
I2
sg62
I00
sg63
I9
sg64
I7
sbag0
(g54
g2
Ntp92
Rp93
(dp94
g58
I42
sg59
I0
sg60
I01
sg61
I1
sg62
I00
sg63
I10
sg64
I7
sbag0
(g54
g2
Ntp95
Rp96
(dp97
g58
I42
sg59
I0
sg60
I01
sg61
I1
sg62
I00
sg63
I11
sg64
I7
sbag0
(g54
g2
Ntp98
Rp99
(dp100
g58
I42
sg59
I0
sg60
I01
sg61
I1
sg62
I00
sg63
I12
sg64
I7
sbag0
(g54
g2
Ntp101
Rp102
(dp103
g58
I42
sg59
I0
sg60
I01
sg61
I1
sg62
I00
sg63
I13
sg64
I7
sbag0
(g54
g2
Ntp104
Rp105
(dp106
g58
I42
sg59
I0
sg60
I01
sg61
I1
sg62
I00
sg63
I14
sg64
I7
sbag0
(g54
g2
Ntp107
Rp108
(dp109
g58
Nsg59
I0
sg60
I00
sg61
I1
sg62
I01
sg63
I15
sg64
I7
sbag0
(g54
g2
Ntp110
Rp111
(dp112
g58
I42
sg59
I0
sg60
I01
sg61
I1
sg62
I00
sg63
I16
sg64
I7
sbag0
(g54
g2
Ntp113
Rp114
(dp115
g58
I42
sg59
I0
sg60
I01
sg61
I1
sg62
I00
sg63
I17
sg64
I7
sbag0
(g54
g2
Ntp116
Rp117
(dp118
g58
Nsg59
I0
sg60
I00
sg61
I1
sg62
I01
sg63
I18
sg64
I7
sbag0
(g54
g2
Ntp119
Rp120
(dp121
g58
I91
sg59
I0
sg60
I01
sg61
I2
sg62
I00
sg63
I19
sg64
I7
sbag0
(g54
g2
Ntp122
Rp123
(dp124
g58
I42
sg59
I0
sg60
I01
sg61
I1
sg62
I00
sg63
I20
sg64
I7
sbag0
(g54
g2
Ntp125
Rp126
(dp127
g58
I42
sg59
I0
sg60
I01
sg61
I1
sg62
I00
sg63
I21
sg64
I7
sbag0
(g54
g2
Ntp128
Rp129
(dp130
g58
I107
sg59
I0
sg60
I01
sg61
I2
sg62
I00
sg63
I22
sg64
I7
sbag0
(g54
g2
Ntp131
Rp132
(dp133
g58
I85
sg59
I0
sg60
I01
sg61
I2
sg62
I00
sg63
I23
sg64
I7
sbag0
(g54
g2
Ntp134
Rp135
(dp136
g58
I42
sg59
I0
sg60
I01
sg61
I1
sg62
I00
sg63
I24
sg64
I7
sbag0
(g54
g2
Ntp137
Rp138
(dp139
g58
I42
sg59
I0
sg60
I01
sg61
I1
sg62
I00
sg63
I25
sg64
I7
sbag0
(g54
g2
Ntp140
Rp141
(dp142
g58
I42
sg59
I0
sg60
I01
sg61
I1
sg62
I00
sg63
I26
sg64
I7
sbag0
(g54
g2
Ntp143
Rp144
(dp145
g58
I42
sg59
I0
sg60
I01
sg61
I1
sg62
I00
sg63
I27
sg64
I7
sbag0
(g54
g2
Ntp146
Rp147
(dp148
g58
Nsg59
I0
sg60
I00
sg61
I1
sg62
I01
sg63
I28
sg64
I7
sbag0
(g54
g2
Ntp149
Rp150
(dp151
g58
I42
sg59
I0
sg60
I01
sg61
I1
sg62
I00
sg63
I29
sg64
I7
sbag0
(g54
g2
Ntp152
Rp153
(dp154
g58
I42
sg59
I0
sg60
I01
sg61
I1
sg62
I00
sg63
I30
sg64
I7
sbag0
(g54
g2
Ntp155
Rp156
(dp157
g58
I42
sg59
I0
sg60
I01
sg61
I1
sg62
I00
sg63
I31
sg64
I7
sbag0
(g54
g2
Ntp158
Rp159
(dp160
g58
I42
sg59
I0
sg60
I01
sg61
I1
sg62
I00
sg63
I32
sg64
I7
sbag0
(g54
g2
Ntp161
Rp162
(dp163
g58
I42
sg59
I0
sg60
I01
sg61
I1
sg62
I00
sg63
I33
sg64
I7
sbag0
(g54
g2
Ntp164
Rp165
(dp166
g58
Nsg59
I0
sg60
I00
sg61
I3
sg62
I01
sg63
I34
sg64
I7
sbag0
(g54
g2
Ntp167
Rp168
(dp169
g58
I42
sg59
I0
sg60
I01
sg61
I1
sg62
I00
sg63
I35
sg64
I7
sbag0
(g54
g2
Ntp170
Rp171
(dp172
g58
I42
sg59
I0
sg60
I01
sg61
I1
sg62
I00
sg63
I36
sg64
I7
sbag0
(g54
g2
Ntp173
Rp174
(dp175
g58
I76
sg59
I0
sg60
I01
sg61
I1
sg62
I00
sg63
I37
sg64
I7
sbag0
(g54
g2
Ntp176
Rp177
(dp178
g58
I42
sg59
I0
sg60
I01
sg61
I1
sg62
I00
sg63
I38
sg64
I7
sbag0
(g54
g2
Ntp179
Rp180
(dp181
g58
I42
sg59
I0
sg60
I01
sg61
I1
sg62
I00
sg63
I39
sg64
I7
sbag0
(g54
g2
Ntp182
Rp183
(dp184
g58
I42
sg59
I0
sg60
I01
sg61
I1
sg62
I00
sg63
I40
sg64
I7
sbag0
(g54
g2
Ntp185
Rp186
(dp187
g58
Nsg59
I0
sg60
I00
sg61
I2
sg62
I01
sg63
I41
sg64
I7
sbag0
(g54
g2
Ntp188
Rp189
(dp190
g58
Nsg59
I57
sg60
I00
sg61
I1
sg62
I01
sg63
I42
sg64
I7
sbag0
(g54
g2
Ntp191
Rp192
(dp193
g58
I91
sg59
I0
sg60
I01
sg61
I2
sg62
I00
sg63
I43
sg64
I7
sbag0
(g54
g2
Ntp194
Rp195
(dp196
g58
I42
sg59
I0
sg60
I01
sg61
I1
sg62
I00
sg63
I44
sg64
I7
sbag0
(g54
g2
Ntp197
Rp198
(dp199
g58
I42
sg59
I0
sg60
I01
sg61
I1
sg62
I00
sg63
I45
sg64
I7
sbag0
(g54
g2
Ntp200
Rp201
(dp202
g58
Nsg59
I0
sg60
I00
sg61
I1
sg62
I01
sg63
I46
sg64
I7
sbag0
(g54
g2
Ntp203
Rp204
(dp205
g58
I42
sg59
I0
sg60
I01
sg61
I1
sg62
I00
sg63
I47
sg64
I7
sbag0
(g54
g2
Ntp206
Rp207
(dp208
g58
I42
sg59
I0
sg60
I01
sg61
I1
sg62
I00
sg63
I48
sg64
I7
sbag0
(g54
g2
Ntp209
Rp210
(dp211
g58
Nsg59
I0
sg60
I00
sg61
I2
sg62
I01
sg63
I49
sg64
I7
sbag0
(g54
g2
Ntp212
Rp213
(dp214
g58
I78
sg59
I0
sg60
I01
sg61
I2
sg62
I00
sg63
I50
sg64
I7
sbag0
(g54
g2
Ntp215
Rp216
(dp217
g58
I7
sg59
I0
sg60
I01
sg61
I3
sg62
I00
sg63
I51
sg64
I7
sbag0
(g54
g2
Ntp218
Rp219
(dp220
g58
I76
sg59
I0
sg60
I01
sg61
I1
sg62
I00
sg63
I52
sg64
I7
sbag0
(g54
g2
Ntp221
Rp222
(dp223
g58
I78
sg59
I0
sg60
I01
sg61
I2
sg62
I00
sg63
I53
sg64
I7
sbag0
(g54
g2
Ntp224
Rp225
(dp226
g58
I77
sg59
I0
sg60
I01
sg61
I3
sg62
I00
sg63
I54
sg64
I7
sbag0
(g54
g2
Ntp227
Rp228
(dp229
g58
I78
sg59
I0
sg60
I01
sg61
I2
sg62
I00
sg63
I55
sg64
I7
sbag0
(g54
g2
Ntp230
Rp231
(dp232
g58
I91
sg59
I0
sg60
I01
sg61
I2
sg62
I00
sg63
I56
sg64
I7
sbag0
(g54
g2
Ntp233
Rp234
(dp235
g58
I7
sg59
I0
sg60
I01
sg61
I3
sg62
I00
sg63
I57
sg64
I7
sbag0
(g54
g2
Ntp236
Rp237
(dp238
g58
I91
sg59
I0
sg60
I01
sg61
I2
sg62
I00
sg63
I58
sg64
I7
sbag0
(g54
g2
Ntp239
Rp240
(dp241
g58
I42
sg59
I0
sg60
I01
sg61
I1
sg62
I00
sg63
I59
sg64
I7
sbag0
(g54
g2
Ntp242
Rp243
(dp244
g58
I107
sg59
I0
sg60
I01
sg61
I2
sg62
I00
sg63
I60
sg64
I7
sbag0
(g54
g2
Ntp245
Rp246
(dp247
g58
I42
sg59
I0
sg60
I01
sg61
I1
sg62
I00
sg63
I61
sg64
I7
sbag0
(g54
g2
Ntp248
Rp249
(dp250
g58
Nsg59
I0
sg60
I00
sg61
I1
sg62
I01
sg63
I62
sg64
I7
sbag0
(g54
g2
Ntp251
Rp252
(dp253
g58
I91
sg59
I0
sg60
I01
sg61
I2
sg62
I00
sg63
I63
sg64
I7
sbag0
(g54
g2
Ntp254
Rp255
(dp256
g58
Nsg59
I0
sg60
I00
sg61
I2
sg62
I01
sg63
I64
sg64
I7
sbag0
(g54
g2
Ntp257
Rp258
(dp259
g58
I91
sg59
I0
sg60
I01
sg61
I2
sg62
I00
sg63
I65
sg64
I7
sbag0
(g54
g2
Ntp260
Rp261
(dp262
g58
I42
sg59
I0
sg60
I01
sg61
I1
sg62
I00
sg63
I66
sg64
I7
sbag0
(g54
g2
Ntp263
Rp264
(dp265
g58
I91
sg59
I0
sg60
I01
sg61
I2
sg62
I00
sg63
I67
sg64
I7
sbag0
(g54
g2
Ntp266
Rp267
(dp268
g58
Nsg59
I0
sg60
I00
sg61
I1
sg62
I01
sg63
I68
sg64
I7
sbag0
(g54
g2
Ntp269
Rp270
(dp271
g58
I42
sg59
I0
sg60
I01
sg61
I1
sg62
I00
sg63
I69
sg64
I7
sbag0
(g54
g2
Ntp272
Rp273
(dp274
g58
I42
sg59
I0
sg60
I01
sg61
I1
sg62
I00
sg63
I70
sg64
I7
sbag0
(g54
g2
Ntp275
Rp276
(dp277
g58
I78
sg59
I0
sg60
I01
sg61
I2
sg62
I00
sg63
I71
sg64
I7
sbag0
(g54
g2
Ntp278
Rp279
(dp280
g58
I42
sg59
I0
sg60
I01
sg61
I1
sg62
I00
sg63
I72
sg64
I7
sbag0
(g54
g2
Ntp281
Rp282
(dp283
g58
I42
sg59
I0
sg60
I01
sg61
I1
sg62
I00
sg63
I73
sg64
I7
sbag0
(g54
g2
Ntp284
Rp285
(dp286
g58
I42
sg59
I0
sg60
I01
sg61
I1
sg62
I00
sg63
I74
sg64
I7
sbag0
(g54
g2
Ntp287
Rp288
(dp289
g58
I77
sg59
I0
sg60
I01
sg61
I3
sg62
I00
sg63
I75
sg64
I7
sbag0
(g54
g2
Ntp290
Rp291
(dp292
g58
Nsg59
I5
sg60
I00
sg61
I1
sg62
I01
sg63
I76
sg64
I7
sbag0
(g54
g2
Ntp293
Rp294
(dp295
g58
Nsg59
I9
sg60
I00
sg61
I3
sg62
I01
sg63
I77
sg64
I7
sbag0
(g54
g2
Ntp296
Rp297
(dp298
g58
Nsg59
I4
sg60
I00
sg61
I2
sg62
I01
sg63
I78
sg64
I7
sbag0
(g54
g2
Ntp299
Rp300
(dp301
g58
I42
sg59
I0
sg60
I01
sg61
I1
sg62
I00
sg63
I79
sg64
I7
sbag0
(g54
g2
Ntp302
Rp303
(dp304
g58
I42
sg59
I0
sg60
I01
sg61
I1
sg62
I00
sg63
I80
sg64
I7
sbag0
(g54
g2
Ntp305
Rp306
(dp307
g58
I42
sg59
I0
sg60
I01
sg61
I1
sg62
I00
sg63
I81
sg64
I7
sbag0
(g54
g2
Ntp308
Rp309
(dp310
g58
I77
sg59
I0
sg60
I01
sg61
I3
sg62
I00
sg63
I82
sg64
I7
sbag0
(g54
g2
Ntp311
Rp312
(dp313
g58
I91
sg59
I0
sg60
I01
sg61
I2
sg62
I00
sg63
I83
sg64
I7
sbag0
(g54
g2
Ntp314
Rp315
(dp316
g58
I42
sg59
I0
sg60
I01
sg61
I1
sg62
I00
sg63
I84
sg64
I7
sbag0
(g54
g2
Ntp317
Rp318
(dp319
g58
Nsg59
I1
sg60
I00
sg61
I2
sg62
I01
sg63
I85
sg64
I7
sbag0
(g54
g2
Ntp320
Rp321
(dp322
g58
I91
sg59
I0
sg60
I01
sg61
I2
sg62
I00
sg63
I86
sg64
I7
sbag0
(g54
g2
Ntp323
Rp324
(dp325
g58
Nsg59
I0
sg60
I00
sg61
I4
sg62
I01
sg63
I87
sg64
I7
sbag0
(g54
g2
Ntp326
Rp327
(dp328
g58
I91
sg59
I0
sg60
I01
sg61
I2
sg62
I00
sg63
I88
sg64
I7
sbag0
(g54
g2
Ntp329
Rp330
(dp331
g58
I42
sg59
I0
sg60
I01
sg61
I1
sg62
I00
sg63
I89
sg64
I7
sbag0
(g54
g2
Ntp332
Rp333
(dp334
g58
I77
sg59
I0
sg60
I01
sg61
I3
sg62
I00
sg63
I90
sg64
I7
sbag0
(g54
g2
Ntp335
Rp336
(dp337
g58
Nsg59
I19
sg60
I00
sg61
I2
sg62
I01
sg63
I91
sg64
I7
sbag0
(g54
g2
Ntp338
Rp339
(dp340
g58
I42
sg59
I0
sg60
I01
sg61
I1
sg62
I00
sg63
I92
sg64
I7
sbag0
(g54
g2
Ntp341
Rp342
(dp343
g58
I42
sg59
I0
sg60
I01
sg61
I1
sg62
I00
sg63
I93
sg64
I7
sbag0
(g54
g2
Ntp344
Rp345
(dp346
g58
I91
sg59
I0
sg60
I01
sg61
I2
sg62
I00
sg63
I94
sg64
I7
sbag0
(g54
g2
Ntp347
Rp348
(dp349
g58
I91
sg59
I0
sg60
I01
sg61
I2
sg62
I00
sg63
I95
sg64
I7
sbag0
(g54
g2
Ntp350
Rp351
(dp352
g58
I77
sg59
I0
sg60
I01
sg61
I3
sg62
I00
sg63
I96
sg64
I7
sbag0
(g54
g2
Ntp353
Rp354
(dp355
g58
I76
sg59
I0
sg60
I01
sg61
I1
sg62
I00
sg63
I97
sg64
I7
sbag0
(g54
g2
Ntp356
Rp357
(dp358
g58
I42
sg59
I0
sg60
I01
sg61
I1
sg62
I00
sg63
I98
sg64
I7
sbag0
(g54
g2
Ntp359
Rp360
(dp361
g58
I42
sg59
I0
sg60
I01
sg61
I1
sg62
I00
sg63
I99
sg64
I7
sbag0
(g54
g2
Ntp362
Rp363
(dp364
g58
Nsg59
I0
sg60
I00
sg61
I1
sg62
I01
sg63
I100
sg64
I7
sbag0
(g54
g2
Ntp365
Rp366
(dp367
g58
I91
sg59
I0
sg60
I01
sg61
I2
sg62
I00
sg63
I101
sg64
I7
sbag0
(g54
g2
Ntp368
Rp369
(dp370
g58
I42
sg59
I0
sg60
I01
sg61
I1
sg62
I00
sg63
I102
sg64
I7
sbag0
(g54
g2
Ntp371
Rp372
(dp373
g58
I76
sg59
I0
sg60
I01
sg61
I1
sg62
I00
sg63
I103
sg64
I7
sbag0
(g54
g2
Ntp374
Rp375
(dp376
g58
I91
sg59
I0
sg60
I01
sg61
I2
sg62
I00
sg63
I104
sg64
I7
sbag0
(g54
g2
Ntp377
Rp378
(dp379
g58
I77
sg59
I0
sg60
I01
sg61
I3
sg62
I00
sg63
I105
sg64
I7
sbag0
(g54
g2
Ntp380
Rp381
(dp382
g58
I7
sg59
I0
sg60
I01
sg61
I3
sg62
I00
sg63
I106
sg64
I7
sbag0
(g54
g2
Ntp383
Rp384
(dp385
g58
Nsg59
I2
sg60
I00
sg61
I2
sg62
I01
sg63
I107
sg64
I7
sbag0
(g54
g2
Ntp386
Rp387
(dp388
g58
Nsg59
I0
sg60
I00
sg61
I3
sg62
I01
sg63
I108
sg64
I7
sbag0
(g54
g2
Ntp389
Rp390
(dp391
g58
Nsg59
I0
sg60
I00
sg61
I2
sg62
I01
sg63
I109
sg64
I7
sbag0
(g54
g2
Ntp392
Rp393
(dp394
g58
I42
sg59
I0
sg60
I01
sg61
I1
sg62
I00
sg63
I110
sg64
I7
sbag0
(g54
g2
Ntp395
Rp396
(dp397
g58
I42
sg59
I0
sg60
I01
sg61
I1
sg62
I00
sg63
I111
sg64
I7
sbag0
(g54
g2
Ntp398
Rp399
(dp400
g58
I42
sg59
I0
sg60
I01
sg61
I1
sg62
I00
sg63
I112
sg64
I7
sbag0
(g54
g2
Ntp401
Rp402
(dp403
g58
I42
sg59
I0
sg60
I01
sg61
I1
sg62
I00
sg63
I113
sg64
I7
sbag0
(g54
g2
Ntp404
Rp405
(dp406
g58
I42
sg59
I0
sg60
I01
sg61
I1
sg62
I00
sg63
I114
sg64
I7
sbag0
(g54
g2
Ntp407
Rp408
(dp409
g58
I76
sg59
I0
sg60
I01
sg61
I1
sg62
I00
sg63
I115
sg64
I7
sbag0
(g54
g2
Ntp410
Rp411
(dp412
g58
I42
sg59
I0
sg60
I01
sg61
I1
sg62
I00
sg63
I116
sg64
I7
sbag0
(g54
g2
Ntp413
Rp414
(dp415
g58
I42
sg59
I0
sg60
I01
sg61
I1
sg62
I00
sg63
I117
sg64
I7
sbag0
(g54
g2
Ntp416
Rp417
(dp418
g58
I125
sg59
I0
sg60
I01
sg61
I1
sg62
I00
sg63
I118
sg64
I7
sbag0
(g54
g2
Ntp419
Rp420
(dp421
g58
Nsg59
I0
sg60
I00
sg61
I2
sg62
I01
sg63
I119
sg64
I7
sbag0
(g54
g2
Ntp422
Rp423
(dp424
g58
I42
sg59
I0
sg60
I01
sg61
I1
sg62
I00
sg63
I120
sg64
I7
sbag0
(g54
g2
Ntp425
Rp426
(dp427
g58
I42
sg59
I0
sg60
I01
sg61
I1
sg62
I00
sg63
I121
sg64
I7
sbag0
(g54
g2
Ntp428
Rp429
(dp430
g58
I42
sg59
I0
sg60
I01
sg61
I1
sg62
I00
sg63
I122
sg64
I7
sbag0
(g54
g2
Ntp431
Rp432
(dp433
g58
I91
sg59
I0
sg60
I01
sg61
I2
sg62
I00
sg63
I123
sg64
I7
sbag0
(g54
g2
Ntp434
Rp435
(dp436
g58
I77
sg59
I0
sg60
I01
sg61
I3
sg62
I00
sg63
I124
sg64
I7
sbag0
(g54
g2
Ntp437
Rp438
(dp439
g58
Nsg59
I1
sg60
I00
sg61
I1
sg62
I01
sg63
I125
sg64
I7
sbag0
(g54
g2
Ntp440
Rp441
(dp442
g58
I77
sg59
I0
sg60
I01
sg61
I3
sg62
I00
sg63
I126
sg64
I7
sbag0
(g54
g2
Ntp443
Rp444
(dp445
g58
I42
sg59
I0
sg60
I01
sg61
I1
sg62
I00
sg63
I127
sg64
I7
sbasS'linksList'
p446
(lp447
(lp448
I2
aI1
aI6
aI0
aI3
aa(lp449
I4
aI0
aI3
aI1
aI6
aa(lp450
I4
aI2
aI1
aI5
aI3
aa(lp451
I3
aI5
aI6
aI4
aI2
aa(lp452
I1
aI3
aI6
aI5
aI4
aa(lp453
I1
aI4
aI0
aI5
aI2
aa(lp454
I2
aI3
aI0
aI5
aI6
aasb.