ccopy_reg
_reconstructor
p0
(cNK_Network.Automata
NK_Automata
p1
c__builtin__
object
p2
Ntp3
Rp4
(dp5
S'stability'
p6
F0.5
sS'stateSpan'
p7
(dp8
I0
I58
sI1
I42
sI2
I26
sI3
I10
sI4
I56
sI5
I40
sI6
I24
sI7
I8
sI8
I62
sI9
I46
sI10
I30
sI11
I14
sI12
I60
sI13
I44
sI14
I28
sI15
I12
sI16
I59
sI17
I43
sI18
I27
sI19
I11
sI20
I57
sI21
I41
sI22
I25
sI23
I9
sI24
I63
sI25
I47
sI26
I31
sI27
I15
sI28
I61
sI29
I45
sI30
I29
sI31
I13
sI32
I58
sI33
I42
sI34
I26
sI35
I10
sI36
I56
sI37
I40
sI38
I24
sI39
I8
sI40
I62
sI41
I46
sI42
I30
sI43
I14
sI44
I60
sI45
I44
sI46
I28
sI47
I12
sI48
I59
sI49
I43
sI50
I27
sI51
I11
sI52
I57
sI53
I41
sI54
I25
sI55
I9
sI56
I63
sI57
I47
sI58
I31
sI59
I15
sI60
I61
sI61
I45
sI62
I29
sI63
I13
sI64
I122
sI65
I106
sI66
I90
sI67
I74
sI68
I120
sI69
I104
sI70
I88
sI71
I72
sI72
I126
sI73
I110
sI74
I94
sI75
I78
sI76
I124
sI77
I108
sI78
I92
sI79
I76
sI80
I123
sI81
I107
sI82
I91
sI83
I75
sI84
I121
sI85
I105
sI86
I89
sI87
I73
sI88
I127
sI89
I111
sI90
I95
sI91
I79
sI92
I125
sI93
I109
sI94
I93
sI95
I77
sI96
I122
sI97
I106
sI98
I90
sI99
I74
sI100
I120
sI101
I104
sI102
I88
sI103
I72
sI104
I126
sI105
I110
sI106
I94
sI107
I78
sI108
I124
sI109
I108
sI110
I92
sI111
I76
sI112
I123
sI113
I107
sI114
I91
sI115
I75
sI116
I121
sI117
I105
sI118
I89
sI119
I73
sI120
I127
sI121
I111
sI122
I95
sI123
I79
sI124
I125
sI125
I109
sI126
I93
sI127
I77
ssS'attractorDict'
p9
(dp10
I1
(lp11
I4
aI60
asI2
(lp12
I4
aI60
assS'K'
p13
I1
sS'ordinalNumber'
p14
I-1
sS'N'
p15
I7
sS'basinAmount'
p16
I2
sS'functionsList'
p17
(lp18
g0
(cNK_Network.BoolFunction
BoolFunction
p19
g2
Ntp20
Rp21
(dp22
S'valuesString'
p23
S'01'
p24
sg13
I1
sbag0
(g19
g2
Ntp25
Rp26
(dp27
g23
S'10'
p28
sg13
I1
sbag0
(g19
g2
Ntp29
Rp30
(dp31
g23
S'10'
p32
sg13
I1
sbag0
(g19
g2
Ntp33
Rp34
(dp35
g23
S'11'
p36
sg13
I1
sbag0
(g19
g2
Ntp37
Rp38
(dp39
g23
S'01'
p40
sg13
I1
sbag0
(g19
g2
Ntp41
Rp42
(dp43
g23
S'10'
p44
sg13
I1
sbag0
(g19
g2
Ntp45
Rp46
(dp47
g23
S'01'
p48
sg13
I1
sbasS'expectedReturnTime'
p49
F3.2666666666666666
sS'stateList'
p50
(lp51
g0
(cNK_Network.State
State
p52
g2
Ntp53
Rp54
(dp55
S'firstAttractorStateNumber'
p56
I44
sS'weight'
p57
I0
sS'inBasin'
p58
I01
sS'basinNumber'
p59
I1
sS'inAttractor'
p60
I00
sS'stateNumber'
p61
I0
sS'dimension'
p62
I7
sbag0
(g52
g2
Ntp63
Rp64
(dp65
g56
I45
sg57
I0
sg58
I01
sg59
I1
sg60
I00
sg61
I1
sg62
I7
sbag0
(g52
g2
Ntp66
Rp67
(dp68
g56
I44
sg57
I0
sg58
I01
sg59
I1
sg60
I00
sg61
I2
sg62
I7
sbag0
(g52
g2
Ntp69
Rp70
(dp71
g56
I45
sg57
I0
sg58
I01
sg59
I1
sg60
I00
sg61
I3
sg62
I7
sbag0
(g52
g2
Ntp72
Rp73
(dp74
g56
I44
sg57
I0
sg58
I01
sg59
I1
sg60
I00
sg61
I4
sg62
I7
sbag0
(g52
g2
Ntp75
Rp76
(dp77
g56
I45
sg57
I0
sg58
I01
sg59
I1
sg60
I00
sg61
I5
sg62
I7
sbag0
(g52
g2
Ntp78
Rp79
(dp80
g56
I44
sg57
I0
sg58
I01
sg59
I1
sg60
I00
sg61
I6
sg62
I7
sbag0
(g52
g2
Ntp81
Rp82
(dp83
g56
I45
sg57
I0
sg58
I01
sg59
I1
sg60
I00
sg61
I7
sg62
I7
sbag0
(g52
g2
Ntp84
Rp85
(dp86
g56
I45
sg57
I0
sg58
I01
sg59
I1
sg60
I00
sg61
I8
sg62
I7
sbag0
(g52
g2
Ntp87
Rp88
(dp89
g56
I61
sg57
I0
sg58
I01
sg59
I1
sg60
I00
sg61
I9
sg62
I7
sbag0
(g52
g2
Ntp90
Rp91
(dp92
g56
I45
sg57
I0
sg58
I01
sg59
I1
sg60
I00
sg61
I10
sg62
I7
sbag0
(g52
g2
Ntp93
Rp94
(dp95
g56
I61
sg57
I0
sg58
I01
sg59
I1
sg60
I00
sg61
I11
sg62
I7
sbag0
(g52
g2
Ntp96
Rp97
(dp98
g56
I60
sg57
I0
sg58
I01
sg59
I1
sg60
I00
sg61
I12
sg62
I7
sbag0
(g52
g2
Ntp99
Rp100
(dp101
g56
I44
sg57
I0
sg58
I01
sg59
I1
sg60
I00
sg61
I13
sg62
I7
sbag0
(g52
g2
Ntp102
Rp103
(dp104
g56
I61
sg57
I0
sg58
I01
sg59
I1
sg60
I00
sg61
I14
sg62
I7
sbag0
(g52
g2
Ntp105
Rp106
(dp107
g56
I60
sg57
I0
sg58
I01
sg59
I1
sg60
I00
sg61
I15
sg62
I7
sbag0
(g52
g2
Ntp108
Rp109
(dp110
g56
I60
sg57
I0
sg58
I01
sg59
I1
sg60
I00
sg61
I16
sg62
I7
sbag0
(g52
g2
Ntp111
Rp112
(dp113
g56
I61
sg57
I0
sg58
I01
sg59
I1
sg60
I00
sg61
I17
sg62
I7
sbag0
(g52
g2
Ntp114
Rp115
(dp116
g56
I60
sg57
I0
sg58
I01
sg59
I1
sg60
I00
sg61
I18
sg62
I7
sbag0
(g52
g2
Ntp117
Rp118
(dp119
g56
I61
sg57
I0
sg58
I01
sg59
I1
sg60
I00
sg61
I19
sg62
I7
sbag0
(g52
g2
Ntp120
Rp121
(dp122
g56
I60
sg57
I0
sg58
I01
sg59
I1
sg60
I00
sg61
I20
sg62
I7
sbag0
(g52
g2
Ntp123
Rp124
(dp125
g56
I61
sg57
I0
sg58
I01
sg59
I1
sg60
I00
sg61
I21
sg62
I7
sbag0
(g52
g2
Ntp126
Rp127
(dp128
g56
I60
sg57
I0
sg58
I01
sg59
I1
sg60
I00
sg61
I22
sg62
I7
sbag0
(g52
g2
Ntp129
Rp130
(dp131
g56
I61
sg57
I0
sg58
I01
sg59
I1
sg60
I00
sg61
I23
sg62
I7
sbag0
(g52
g2
Ntp132
Rp133
(dp134
g56
I44
sg57
I0
sg58
I01
sg59
I1
sg60
I00
sg61
I24
sg62
I7
sbag0
(g52
g2
Ntp135
Rp136
(dp137
g56
I60
sg57
I0
sg58
I01
sg59
I1
sg60
I00
sg61
I25
sg62
I7
sbag0
(g52
g2
Ntp138
Rp139
(dp140
g56
I44
sg57
I0
sg58
I01
sg59
I1
sg60
I00
sg61
I26
sg62
I7
sbag0
(g52
g2
Ntp141
Rp142
(dp143
g56
I60
sg57
I0
sg58
I01
sg59
I1
sg60
I00
sg61
I27
sg62
I7
sbag0
(g52
g2
Ntp144
Rp145
(dp146
g56
I61
sg57
I0
sg58
I01
sg59
I1
sg60
I00
sg61
I28
sg62
I7
sbag0
(g52
g2
Ntp147
Rp148
(dp149
g56
I45
sg57
I0
sg58
I01
sg59
I1
sg60
I00
sg61
I29
sg62
I7
sbag0
(g52
g2
Ntp150
Rp151
(dp152
g56
I45
sg57
I0
sg58
I01
sg59
I1
sg60
I00
sg61
I30
sg62
I7
sbag0
(g52
g2
Ntp153
Rp154
(dp155
g56
I44
sg57
I0
sg58
I01
sg59
I1
sg60
I00
sg61
I31
sg62
I7
sbag0
(g52
g2
Ntp156
Rp157
(dp158
g56
I44
sg57
I0
sg58
I01
sg59
I1
sg60
I00
sg61
I32
sg62
I7
sbag0
(g52
g2
Ntp159
Rp160
(dp161
g56
I45
sg57
I0
sg58
I01
sg59
I1
sg60
I00
sg61
I33
sg62
I7
sbag0
(g52
g2
Ntp162
Rp163
(dp164
g56
I44
sg57
I0
sg58
I01
sg59
I1
sg60
I00
sg61
I34
sg62
I7
sbag0
(g52
g2
Ntp165
Rp166
(dp167
g56
I45
sg57
I0
sg58
I01
sg59
I1
sg60
I00
sg61
I35
sg62
I7
sbag0
(g52
g2
Ntp168
Rp169
(dp170
g56
I44
sg57
I0
sg58
I01
sg59
I1
sg60
I00
sg61
I36
sg62
I7
sbag0
(g52
g2
Ntp171
Rp172
(dp173
g56
I45
sg57
I0
sg58
I01
sg59
I1
sg60
I00
sg61
I37
sg62
I7
sbag0
(g52
g2
Ntp174
Rp175
(dp176
g56
I44
sg57
I0
sg58
I01
sg59
I1
sg60
I00
sg61
I38
sg62
I7
sbag0
(g52
g2
Ntp177
Rp178
(dp179
g56
I45
sg57
I0
sg58
I01
sg59
I1
sg60
I00
sg61
I39
sg62
I7
sbag0
(g52
g2
Ntp180
Rp181
(dp182
g56
I45
sg57
I0
sg58
I01
sg59
I1
sg60
I00
sg61
I40
sg62
I7
sbag0
(g52
g2
Ntp183
Rp184
(dp185
g56
I61
sg57
I0
sg58
I01
sg59
I1
sg60
I00
sg61
I41
sg62
I7
sbag0
(g52
g2
Ntp186
Rp187
(dp188
g56
I45
sg57
I0
sg58
I01
sg59
I1
sg60
I00
sg61
I42
sg62
I7
sbag0
(g52
g2
Ntp189
Rp190
(dp191
g56
I61
sg57
I0
sg58
I01
sg59
I1
sg60
I00
sg61
I43
sg62
I7
sbag0
(g52
g2
Ntp192
Rp193
(dp194
g56
Nsg57
I15
sg58
I00
sg59
I1
sg60
I01
sg61
I44
sg62
I7
sbag0
(g52
g2
Ntp195
Rp196
(dp197
g56
Nsg57
I15
sg58
I00
sg59
I1
sg60
I01
sg61
I45
sg62
I7
sbag0
(g52
g2
Ntp198
Rp199
(dp200
g56
I61
sg57
I0
sg58
I01
sg59
I1
sg60
I00
sg61
I46
sg62
I7
sbag0
(g52
g2
Ntp201
Rp202
(dp203
g56
I60
sg57
I0
sg58
I01
sg59
I1
sg60
I00
sg61
I47
sg62
I7
sbag0
(g52
g2
Ntp204
Rp205
(dp206
g56
I60
sg57
I0
sg58
I01
sg59
I1
sg60
I00
sg61
I48
sg62
I7
sbag0
(g52
g2
Ntp207
Rp208
(dp209
g56
I61
sg57
I0
sg58
I01
sg59
I1
sg60
I00
sg61
I49
sg62
I7
sbag0
(g52
g2
Ntp210
Rp211
(dp212
g56
I60
sg57
I0
sg58
I01
sg59
I1
sg60
I00
sg61
I50
sg62
I7
sbag0
(g52
g2
Ntp213
Rp214
(dp215
g56
I61
sg57
I0
sg58
I01
sg59
I1
sg60
I00
sg61
I51
sg62
I7
sbag0
(g52
g2
Ntp216
Rp217
(dp218
g56
I60
sg57
I0
sg58
I01
sg59
I1
sg60
I00
sg61
I52
sg62
I7
sbag0
(g52
g2
Ntp219
Rp220
(dp221
g56
I61
sg57
I0
sg58
I01
sg59
I1
sg60
I00
sg61
I53
sg62
I7
sbag0
(g52
g2
Ntp222
Rp223
(dp224
g56
I60
sg57
I0
sg58
I01
sg59
I1
sg60
I00
sg61
I54
sg62
I7
sbag0
(g52
g2
Ntp225
Rp226
(dp227
g56
I61
sg57
I0
sg58
I01
sg59
I1
sg60
I00
sg61
I55
sg62
I7
sbag0
(g52
g2
Ntp228
Rp229
(dp230
g56
I44
sg57
I0
sg58
I01
sg59
I1
sg60
I00
sg61
I56
sg62
I7
sbag0
(g52
g2
Ntp231
Rp232
(dp233
g56
I60
sg57
I0
sg58
I01
sg59
I1
sg60
I00
sg61
I57
sg62
I7
sbag0
(g52
g2
Ntp234
Rp235
(dp236
g56
I44
sg57
I0
sg58
I01
sg59
I1
sg60
I00
sg61
I58
sg62
I7
sbag0
(g52
g2
Ntp237
Rp238
(dp239
g56
I60
sg57
I0
sg58
I01
sg59
I1
sg60
I00
sg61
I59
sg62
I7
sbag0
(g52
g2
Ntp240
Rp241
(dp242
g56
Nsg57
I15
sg58
I00
sg59
I1
sg60
I01
sg61
I60
sg62
I7
sbag0
(g52
g2
Ntp243
Rp244
(dp245
g56
Nsg57
I15
sg58
I00
sg59
I1
sg60
I01
sg61
I61
sg62
I7
sbag0
(g52
g2
Ntp246
Rp247
(dp248
g56
I45
sg57
I0
sg58
I01
sg59
I1
sg60
I00
sg61
I62
sg62
I7
sbag0
(g52
g2
Ntp249
Rp250
(dp251
g56
I44
sg57
I0
sg58
I01
sg59
I1
sg60
I00
sg61
I63
sg62
I7
sbag0
(g52
g2
Ntp252
Rp253
(dp254
g56
I108
sg57
I0
sg58
I01
sg59
I2
sg60
I00
sg61
I64
sg62
I7
sbag0
(g52
g2
Ntp255
Rp256
(dp257
g56
I109
sg57
I0
sg58
I01
sg59
I2
sg60
I00
sg61
I65
sg62
I7
sbag0
(g52
g2
Ntp258
Rp259
(dp260
g56
I108
sg57
I0
sg58
I01
sg59
I2
sg60
I00
sg61
I66
sg62
I7
sbag0
(g52
g2
Ntp261
Rp262
(dp263
g56
I109
sg57
I0
sg58
I01
sg59
I2
sg60
I00
sg61
I67
sg62
I7
sbag0
(g52
g2
Ntp264
Rp265
(dp266
g56
I108
sg57
I0
sg58
I01
sg59
I2
sg60
I00
sg61
I68
sg62
I7
sbag0
(g52
g2
Ntp267
Rp268
(dp269
g56
I109
sg57
I0
sg58
I01
sg59
I2
sg60
I00
sg61
I69
sg62
I7
sbag0
(g52
g2
Ntp270
Rp271
(dp272
g56
I108
sg57
I0
sg58
I01
sg59
I2
sg60
I00
sg61
I70
sg62
I7
sbag0
(g52
g2
Ntp273
Rp274
(dp275
g56
I109
sg57
I0
sg58
I01
sg59
I2
sg60
I00
sg61
I71
sg62
I7
sbag0
(g52
g2
Ntp276
Rp277
(dp278
g56
I109
sg57
I0
sg58
I01
sg59
I2
sg60
I00
sg61
I72
sg62
I7
sbag0
(g52
g2
Ntp279
Rp280
(dp281
g56
I125
sg57
I0
sg58
I01
sg59
I2
sg60
I00
sg61
I73
sg62
I7
sbag0
(g52
g2
Ntp282
Rp283
(dp284
g56
I109
sg57
I0
sg58
I01
sg59
I2
sg60
I00
sg61
I74
sg62
I7
sbag0
(g52
g2
Ntp285
Rp286
(dp287
g56
I125
sg57
I0
sg58
I01
sg59
I2
sg60
I00
sg61
I75
sg62
I7
sbag0
(g52
g2
Ntp288
Rp289
(dp290
g56
I124
sg57
I0
sg58
I01
sg59
I2
sg60
I00
sg61
I76
sg62
I7
sbag0
(g52
g2
Ntp291
Rp292
(dp293
g56
I108
sg57
I0
sg58
I01
sg59
I2
sg60
I00
sg61
I77
sg62
I7
sbag0
(g52
g2
Ntp294
Rp295
(dp296
g56
I125
sg57
I0
sg58
I01
sg59
I2
sg60
I00
sg61
I78
sg62
I7
sbag0
(g52
g2
Ntp297
Rp298
(dp299
g56
I124
sg57
I0
sg58
I01
sg59
I2
sg60
I00
sg61
I79
sg62
I7
sbag0
(g52
g2
Ntp300
Rp301
(dp302
g56
I124
sg57
I0
sg58
I01
sg59
I2
sg60
I00
sg61
I80
sg62
I7
sbag0
(g52
g2
Ntp303
Rp304
(dp305
g56
I125
sg57
I0
sg58
I01
sg59
I2
sg60
I00
sg61
I81
sg62
I7
sbag0
(g52
g2
Ntp306
Rp307
(dp308
g56
I124
sg57
I0
sg58
I01
sg59
I2
sg60
I00
sg61
I82
sg62
I7
sbag0
(g52
g2
Ntp309
Rp310
(dp311
g56
I125
sg57
I0
sg58
I01
sg59
I2
sg60
I00
sg61
I83
sg62
I7
sbag0
(g52
g2
Ntp312
Rp313
(dp314
g56
I124
sg57
I0
sg58
I01
sg59
I2
sg60
I00
sg61
I84
sg62
I7
sbag0
(g52
g2
Ntp315
Rp316
(dp317
g56
I125
sg57
I0
sg58
I01
sg59
I2
sg60
I00
sg61
I85
sg62
I7
sbag0
(g52
g2
Ntp318
Rp319
(dp320
g56
I124
sg57
I0
sg58
I01
sg59
I2
sg60
I00
sg61
I86
sg62
I7
sbag0
(g52
g2
Ntp321
Rp322
(dp323
g56
I125
sg57
I0
sg58
I01
sg59
I2
sg60
I00
sg61
I87
sg62
I7
sbag0
(g52
g2
Ntp324
Rp325
(dp326
g56
I108
sg57
I0
sg58
I01
sg59
I2
sg60
I00
sg61
I88
sg62
I7
sbag0
(g52
g2
Ntp327
Rp328
(dp329
g56
I124
sg57
I0
sg58
I01
sg59
I2
sg60
I00
sg61
I89
sg62
I7
sbag0
(g52
g2
Ntp330
Rp331
(dp332
g56
I108
sg57
I0
sg58
I01
sg59
I2
sg60
I00
sg61
I90
sg62
I7
sbag0
(g52
g2
Ntp333
Rp334
(dp335
g56
I124
sg57
I0
sg58
I01
sg59
I2
sg60
I00
sg61
I91
sg62
I7
sbag0
(g52
g2
Ntp336
Rp337
(dp338
g56
I125
sg57
I0
sg58
I01
sg59
I2
sg60
I00
sg61
I92
sg62
I7
sbag0
(g52
g2
Ntp339
Rp340
(dp341
g56
I109
sg57
I0
sg58
I01
sg59
I2
sg60
I00
sg61
I93
sg62
I7
sbag0
(g52
g2
Ntp342
Rp343
(dp344
g56
I109
sg57
I0
sg58
I01
sg59
I2
sg60
I00
sg61
I94
sg62
I7
sbag0
(g52
g2
Ntp345
Rp346
(dp347
g56
I108
sg57
I0
sg58
I01
sg59
I2
sg60
I00
sg61
I95
sg62
I7
sbag0
(g52
g2
Ntp348
Rp349
(dp350
g56
I108
sg57
I0
sg58
I01
sg59
I2
sg60
I00
sg61
I96
sg62
I7
sbag0
(g52
g2
Ntp351
Rp352
(dp353
g56
I109
sg57
I0
sg58
I01
sg59
I2
sg60
I00
sg61
I97
sg62
I7
sbag0
(g52
g2
Ntp354
Rp355
(dp356
g56
I108
sg57
I0
sg58
I01
sg59
I2
sg60
I00
sg61
I98
sg62
I7
sbag0
(g52
g2
Ntp357
Rp358
(dp359
g56
I109
sg57
I0
sg58
I01
sg59
I2
sg60
I00
sg61
I99
sg62
I7
sbag0
(g52
g2
Ntp360
Rp361
(dp362
g56
I108
sg57
I0
sg58
I01
sg59
I2
sg60
I00
sg61
I100
sg62
I7
sbag0
(g52
g2
Ntp363
Rp364
(dp365
g56
I109
sg57
I0
sg58
I01
sg59
I2
sg60
I00
sg61
I101
sg62
I7
sbag0
(g52
g2
Ntp366
Rp367
(dp368
g56
I108
sg57
I0
sg58
I01
sg59
I2
sg60
I00
sg61
I102
sg62
I7
sbag0
(g52
g2
Ntp369
Rp370
(dp371
g56
I109
sg57
I0
sg58
I01
sg59
I2
sg60
I00
sg61
I103
sg62
I7
sbag0
(g52
g2
Ntp372
Rp373
(dp374
g56
I109
sg57
I0
sg58
I01
sg59
I2
sg60
I00
sg61
I104
sg62
I7
sbag0
(g52
g2
Ntp375
Rp376
(dp377
g56
I125
sg57
I0
sg58
I01
sg59
I2
sg60
I00
sg61
I105
sg62
I7
sbag0
(g52
g2
Ntp378
Rp379
(dp380
g56
I109
sg57
I0
sg58
I01
sg59
I2
sg60
I00
sg61
I106
sg62
I7
sbag0
(g52
g2
Ntp381
Rp382
(dp383
g56
I125
sg57
I0
sg58
I01
sg59
I2
sg60
I00
sg61
I107
sg62
I7
sbag0
(g52
g2
Ntp384
Rp385
(dp386
g56
Nsg57
I15
sg58
I00
sg59
I2
sg60
I01
sg61
I108
sg62
I7
sbag0
(g52
g2
Ntp387
Rp388
(dp389
g56
Nsg57
I15
sg58
I00
sg59
I2
sg60
I01
sg61
I109
sg62
I7
sbag0
(g52
g2
Ntp390
Rp391
(dp392
g56
I125
sg57
I0
sg58
I01
sg59
I2
sg60
I00
sg61
I110
sg62
I7
sbag0
(g52
g2
Ntp393
Rp394
(dp395
g56
I124
sg57
I0
sg58
I01
sg59
I2
sg60
I00
sg61
I111
sg62
I7
sbag0
(g52
g2
Ntp396
Rp397
(dp398
g56
I124
sg57
I0
sg58
I01
sg59
I2
sg60
I00
sg61
I112
sg62
I7
sbag0
(g52
g2
Ntp399
Rp400
(dp401
g56
I125
sg57
I0
sg58
I01
sg59
I2
sg60
I00
sg61
I113
sg62
I7
sbag0
(g52
g2
Ntp402
Rp403
(dp404
g56
I124
sg57
I0
sg58
I01
sg59
I2
sg60
I00
sg61
I114
sg62
I7
sbag0
(g52
g2
Ntp405
Rp406
(dp407
g56
I125
sg57
I0
sg58
I01
sg59
I2
sg60
I00
sg61
I115
sg62
I7
sbag0
(g52
g2
Ntp408
Rp409
(dp410
g56
I124
sg57
I0
sg58
I01
sg59
I2
sg60
I00
sg61
I116
sg62
I7
sbag0
(g52
g2
Ntp411
Rp412
(dp413
g56
I125
sg57
I0
sg58
I01
sg59
I2
sg60
I00
sg61
I117
sg62
I7
sbag0
(g52
g2
Ntp414
Rp415
(dp416
g56
I124
sg57
I0
sg58
I01
sg59
I2
sg60
I00
sg61
I118
sg62
I7
sbag0
(g52
g2
Ntp417
Rp418
(dp419
g56
I125
sg57
I0
sg58
I01
sg59
I2
sg60
I00
sg61
I119
sg62
I7
sbag0
(g52
g2
Ntp420
Rp421
(dp422
g56
I108
sg57
I0
sg58
I01
sg59
I2
sg60
I00
sg61
I120
sg62
I7
sbag0
(g52
g2
Ntp423
Rp424
(dp425
g56
I124
sg57
I0
sg58
I01
sg59
I2
sg60
I00
sg61
I121
sg62
I7
sbag0
(g52
g2
Ntp426
Rp427
(dp428
g56
I108
sg57
I0
sg58
I01
sg59
I2
sg60
I00
sg61
I122
sg62
I7
sbag0
(g52
g2
Ntp429
Rp430
(dp431
g56
I124
sg57
I0
sg58
I01
sg59
I2
sg60
I00
sg61
I123
sg62
I7
sbag0
(g52
g2
Ntp432
Rp433
(dp434
g56
Nsg57
I15
sg58
I00
sg59
I2
sg60
I01
sg61
I124
sg62
I7
sbag0
(g52
g2
Ntp435
Rp436
(dp437
g56
Nsg57
I15
sg58
I00
sg59
I2
sg60
I01
sg61
I125
sg62
I7
sbag0
(g52
g2
Ntp438
Rp439
(dp440
g56
I109
sg57
I0
sg58
I01
sg59
I2
sg60
I00
sg61
I126
sg62
I7
sbag0
(g52
g2
Ntp441
Rp442
(dp443
g56
I108
sg57
I0
sg58
I01
sg59
I2
sg60
I00
sg61
I127
sg62
I7
sbasS'linksList'
p444
(lp445
(lp446
I0
aa(lp447
I5
aa(lp448
I6
aa(lp449
I2
aa(lp450
I3
aa(lp451
I4
aa(lp452
I2
aasb.