ccopy_reg
_reconstructor
p0
(cNK_Network.Automata
NK_Automata
p1
c__builtin__
object
p2
Ntp3
Rp4
(dp5
S'stability'
p6
F1.0
sS'stateSpan'
p7
(dp8
S'010'
p9
S'001'
p10
sS'011'
p11
S'001'
p12
sS'001'
p13
S'000'
p14
sS'000'
p15
S'111'
p16
sS'111'
p17
S'011'
p18
sS'110'
p19
S'000'
p20
sS'100'
p21
S'110'
p22
sS'101'
p23
S'100'
p24
ssS'attractorDict'
p25
(dp26
I1
(lp27
I4
aI4
assS'K'
p28
I3
sS'ordinalNumber'
p29
I-1
sS'N'
p30
I3
sS'basinAmount'
p31
I1
sS'functionsList'
p32
(lp33
g0
(cNK_Network.BoolFunction
BoolFunction
p34
g2
Ntp35
Rp36
(dp37
S'valuesString'
p38
S'10001100'
p39
sg28
I3
sbag0
(g34
g2
Ntp40
Rp41
(dp42
g38
S'11000001'
p43
sg28
I3
sbag0
(g34
g2
Ntp44
Rp45
(dp46
g38
S'10100011'
p47
sg28
I3
sbasS'expectedReturnTime'
p48
F-0.5
sS'stateList'
p49
(lp50
g0
(cNK_Network.State
State
p51
g2
Ntp52
Rp53
(dp54
S'stateNumber'
p55
I0
sS'weight'
p56
I0
sS'inBasin'
p57
I01
sS'basinNumber'
p58
I1
sS'inAttractor'
p59
I00
sS'firstAttractorStateNumber'
p60
I6
sS'dimension'
p61
I3
sbag0
(g51
g2
Ntp62
Rp63
(dp64
g55
I1
sg56
I0
sg57
I01
sg58
I1
sg59
I00
sg60
I5
sg61
I3
sbag0
(g51
g2
Ntp65
Rp66
(dp67
g55
I2
sg56
I1
sg57
I00
sg58
I1
sg59
I01
sg60
Nsg61
I3
sbag0
(g51
g2
Ntp68
Rp69
(dp70
g55
I3
sg56
I1
sg57
I00
sg58
I1
sg59
I01
sg60
Nsg61
I3
sbag0
(g51
g2
Ntp71
Rp72
(dp73
g55
I4
sg56
I0
sg57
I01
sg58
I1
sg59
I00
sg60
I2
sg61
I3
sbag0
(g51
g2
Ntp74
Rp75
(dp76
g55
I5
sg56
I1
sg57
I00
sg58
I1
sg59
I01
sg60
Nsg61
I3
sbag0
(g51
g2
Ntp77
Rp78
(dp79
g55
I6
sg56
I1
sg57
I00
sg58
I1
sg59
I01
sg60
Nsg61
I3
sbag0
(g51
g2
Ntp80
Rp81
(dp82
g55
I7
sg56
I0
sg57
I01
sg58
I1
sg59
I00
sg60
I3
sg61
I3
sbag0
(g51
g2
Ntp83
Rp84
(dp85
g60
Nsg56
I0
sg57
I00
sg58
Nsg59
I00
sg55
I0
sg61
I3
sbag0
(g51
g2
Ntp86
Rp87
(dp88
g60
Nsg56
I0
sg57
I00
sg58
Nsg59
I00
sg55
I1
sg61
I3
sbag0
(g51
g2
Ntp89
Rp90
(dp91
g60
Nsg56
I0
sg57
I00
sg58
Nsg59
I00
sg55
I2
sg61
I3
sbag0
(g51
g2
Ntp92
Rp93
(dp94
g60
Nsg56
I0
sg57
I00
sg58
Nsg59
I00
sg55
I3
sg61
I3
sbag0
(g51
g2
Ntp95
Rp96
(dp97
g60
Nsg56
I0
sg57
I00
sg58
Nsg59
I00
sg55
I4
sg61
I3
sbag0
(g51
g2
Ntp98
Rp99
(dp100
g60
Nsg56
I0
sg57
I00
sg58
Nsg59
I00
sg55
I5
sg61
I3
sbag0
(g51
g2
Ntp101
Rp102
(dp103
g60
Nsg56
I0
sg57
I00
sg58
Nsg59
I00
sg55
I6
sg61
I3
sbag0
(g51
g2
Ntp104
Rp105
(dp106
g60
Nsg56
I0
sg57
I00
sg58
Nsg59
I00
sg55
I7
sg61
I3
sbasS'linksList'
p107
(lp108
(lp109
I0
aI1
aI2
aa(lp110
I1
aI2
aI0
aa(lp111
I2
aI1
aI0
aasb.