ccopy_reg
_reconstructor
p0
(cNK_Network.Automata
NK_Automata
p1
c__builtin__
object
p2
Ntp3
Rp4
(dp5
S'stability'
p6
F0.9539794921875
sS'stateSpan'
p7
(dp8
I0
I109
sI1
I101
sI2
I64
sI3
I123
sI4
I93
sI5
I73
sI6
I108
sI7
I107
sI8
I73
sI9
I37
sI10
I96
sI11
I31
sI12
I121
sI13
I13
sI14
I108
sI15
I15
sI16
I47
sI17
I108
sI18
I107
sI19
I114
sI20
I63
sI21
I96
sI22
I111
sI23
I98
sI24
I75
sI25
I44
sI26
I75
sI27
I22
sI28
I91
sI29
I36
sI30
I79
sI31
I6
sI32
I125
sI33
I118
sI34
I67
sI35
I107
sI36
I93
sI37
I74
sI38
I127
sI39
I123
sI40
I89
sI41
I54
sI42
I35
sI43
I15
sI44
I121
sI45
I14
sI46
I63
sI47
I31
sI48
I126
sI49
I126
sI50
I40
sI51
I99
sI52
I126
sI53
I98
sI54
I60
sI55
I115
sI56
I26
sI57
I62
sI58
I8
sI59
I71
sI60
I26
sI61
I38
sI62
I28
sI63
I87
sI64
I109
sI65
I103
sI66
I84
sI67
I120
sI68
I77
sI69
I95
sI70
I100
sI71
I120
sI72
I73
sI73
I35
sI74
I116
sI75
I28
sI76
I105
sI77
I27
sI78
I100
sI79
I28
sI80
I37
sI81
I102
sI82
I126
sI83
I120
sI84
I37
sI85
I118
sI86
I102
sI87
I120
sI88
I65
sI89
I34
sI90
I94
sI91
I28
sI92
I65
sI93
I50
sI94
I70
sI95
I28
sI96
I108
sI97
I102
sI98
I69
sI99
I120
sI100
I92
sI101
I94
sI102
I117
sI103
I104
sI104
I72
sI105
I34
sI106
I37
sI107
I28
sI108
I120
sI109
I26
sI110
I53
sI111
I12
sI112
I103
sI113
I102
sI114
I46
sI115
I123
sI116
I119
sI117
I118
sI118
I54
sI119
I107
sI120
I3
sI121
I34
sI122
I14
sI123
I95
sI124
I19
sI125
I50
sI126
I22
sI127
I79
ssS'attractorDict'
p9
(dp10
I1
(lp11
I2
aI123
asI2
(lp12
I1
aI0
asI3
(lp13
I1
aI1
assS'K'
p14
I5
sS'ordinalNumber'
p15
I-1
sS'N'
p16
I7
sS'basinAmount'
p17
I3
sS'functionsList'
p18
(lp19
g0
(cNK_Network.BoolFunction
BoolFunction
p20
g2
Ntp21
Rp22
(dp23
S'valuesString'
p24
S'10111110110011001111100011001101'
p25
sg14
I5
sbag0
(g20
g2
Ntp26
Rp27
(dp28
g24
S'10011110011100101010111010101110'
p29
sg14
I5
sbag0
(g20
g2
Ntp30
Rp31
(dp32
g24
S'01000100001010111101001101010110'
p33
sg14
I5
sbag0
(g20
g2
Ntp34
Rp35
(dp36
g24
S'11110111110000100110110001001111'
p37
sg14
I5
sbag0
(g20
g2
Ntp38
Rp39
(dp40
g24
S'10111010000111011001101011011101'
p41
sg14
I5
sbag0
(g20
g2
Ntp42
Rp43
(dp44
g24
S'01010011000111000110111101011101'
p45
sg14
I5
sbag0
(g20
g2
Ntp46
Rp47
(dp48
g24
S'11111010100100000100100010101101'
p49
sg14
I5
sbasS'expectedReturnTime'
p50
F6.241935483870968
sS'stateList'
p51
(lp52
g0
(cNK_Network.State
State
p53
g2
Ntp54
Rp55
(dp56
S'firstAttractorStateNumber'
p57
I28
sS'weight'
p58
I0
sS'inBasin'
p59
I01
sS'basinNumber'
p60
I1
sS'inAttractor'
p61
I00
sS'stateNumber'
p62
I0
sS'dimension'
p63
I7
sbag0
(g53
g2
Ntp64
Rp65
(dp66
g57
I28
sg58
I0
sg59
I01
sg60
I1
sg61
I00
sg62
I1
sg63
I7
sbag0
(g53
g2
Ntp67
Rp68
(dp69
g57
I28
sg58
I0
sg59
I01
sg60
I1
sg61
I00
sg62
I2
sg63
I7
sbag0
(g53
g2
Ntp70
Rp71
(dp72
g57
I28
sg58
I0
sg59
I01
sg60
I1
sg61
I00
sg62
I3
sg63
I7
sbag0
(g53
g2
Ntp73
Rp74
(dp75
g57
I28
sg58
I0
sg59
I01
sg60
I1
sg61
I00
sg62
I4
sg63
I7
sbag0
(g53
g2
Ntp76
Rp77
(dp78
g57
I28
sg58
I0
sg59
I01
sg60
I1
sg61
I00
sg62
I5
sg63
I7
sbag0
(g53
g2
Ntp79
Rp80
(dp81
g57
I28
sg58
I0
sg59
I01
sg60
I1
sg61
I00
sg62
I6
sg63
I7
sbag0
(g53
g2
Ntp82
Rp83
(dp84
g57
I28
sg58
I0
sg59
I01
sg60
I1
sg61
I00
sg62
I7
sg63
I7
sbag0
(g53
g2
Ntp85
Rp86
(dp87
g57
I28
sg58
I0
sg59
I01
sg60
I1
sg61
I00
sg62
I8
sg63
I7
sbag0
(g53
g2
Ntp88
Rp89
(dp90
g57
I28
sg58
I0
sg59
I01
sg60
I1
sg61
I00
sg62
I9
sg63
I7
sbag0
(g53
g2
Ntp91
Rp92
(dp93
g57
I28
sg58
I0
sg59
I01
sg60
I1
sg61
I00
sg62
I10
sg63
I7
sbag0
(g53
g2
Ntp94
Rp95
(dp96
g57
I28
sg58
I0
sg59
I01
sg60
I1
sg61
I00
sg62
I11
sg63
I7
sbag0
(g53
g2
Ntp97
Rp98
(dp99
g57
I28
sg58
I0
sg59
I01
sg60
I1
sg61
I00
sg62
I12
sg63
I7
sbag0
(g53
g2
Ntp100
Rp101
(dp102
g57
Nsg58
I0
sg59
I00
sg60
I2
sg61
I01
sg62
I13
sg63
I7
sbag0
(g53
g2
Ntp103
Rp104
(dp105
g57
I28
sg58
I0
sg59
I01
sg60
I1
sg61
I00
sg62
I14
sg63
I7
sbag0
(g53
g2
Ntp106
Rp107
(dp108
g57
Nsg58
I1
sg59
I00
sg60
I3
sg61
I01
sg62
I15
sg63
I7
sbag0
(g53
g2
Ntp109
Rp110
(dp111
g57
I28
sg58
I0
sg59
I01
sg60
I1
sg61
I00
sg62
I16
sg63
I7
sbag0
(g53
g2
Ntp112
Rp113
(dp114
g57
I28
sg58
I0
sg59
I01
sg60
I1
sg61
I00
sg62
I17
sg63
I7
sbag0
(g53
g2
Ntp115
Rp116
(dp117
g57
I28
sg58
I0
sg59
I01
sg60
I1
sg61
I00
sg62
I18
sg63
I7
sbag0
(g53
g2
Ntp118
Rp119
(dp120
g57
I28
sg58
I0
sg59
I01
sg60
I1
sg61
I00
sg62
I19
sg63
I7
sbag0
(g53
g2
Ntp121
Rp122
(dp123
g57
I28
sg58
I0
sg59
I01
sg60
I1
sg61
I00
sg62
I20
sg63
I7
sbag0
(g53
g2
Ntp124
Rp125
(dp126
g57
I28
sg58
I0
sg59
I01
sg60
I1
sg61
I00
sg62
I21
sg63
I7
sbag0
(g53
g2
Ntp127
Rp128
(dp129
g57
I28
sg58
I0
sg59
I01
sg60
I1
sg61
I00
sg62
I22
sg63
I7
sbag0
(g53
g2
Ntp130
Rp131
(dp132
g57
I28
sg58
I0
sg59
I01
sg60
I1
sg61
I00
sg62
I23
sg63
I7
sbag0
(g53
g2
Ntp133
Rp134
(dp135
g57
I28
sg58
I0
sg59
I01
sg60
I1
sg61
I00
sg62
I24
sg63
I7
sbag0
(g53
g2
Ntp136
Rp137
(dp138
g57
I28
sg58
I0
sg59
I01
sg60
I1
sg61
I00
sg62
I25
sg63
I7
sbag0
(g53
g2
Ntp139
Rp140
(dp141
g57
I28
sg58
I0
sg59
I01
sg60
I1
sg61
I00
sg62
I26
sg63
I7
sbag0
(g53
g2
Ntp142
Rp143
(dp144
g57
I28
sg58
I0
sg59
I01
sg60
I1
sg61
I00
sg62
I27
sg63
I7
sbag0
(g53
g2
Ntp145
Rp146
(dp147
g57
Nsg58
I123
sg59
I00
sg60
I1
sg61
I01
sg62
I28
sg63
I7
sbag0
(g53
g2
Ntp148
Rp149
(dp150
g57
I28
sg58
I0
sg59
I01
sg60
I1
sg61
I00
sg62
I29
sg63
I7
sbag0
(g53
g2
Ntp151
Rp152
(dp153
g57
I28
sg58
I0
sg59
I01
sg60
I1
sg61
I00
sg62
I30
sg63
I7
sbag0
(g53
g2
Ntp154
Rp155
(dp156
g57
I28
sg58
I0
sg59
I01
sg60
I1
sg61
I00
sg62
I31
sg63
I7
sbag0
(g53
g2
Ntp157
Rp158
(dp159
g57
I28
sg58
I0
sg59
I01
sg60
I1
sg61
I00
sg62
I32
sg63
I7
sbag0
(g53
g2
Ntp160
Rp161
(dp162
g57
I28
sg58
I0
sg59
I01
sg60
I1
sg61
I00
sg62
I33
sg63
I7
sbag0
(g53
g2
Ntp163
Rp164
(dp165
g57
I28
sg58
I0
sg59
I01
sg60
I1
sg61
I00
sg62
I34
sg63
I7
sbag0
(g53
g2
Ntp166
Rp167
(dp168
g57
I28
sg58
I0
sg59
I01
sg60
I1
sg61
I00
sg62
I35
sg63
I7
sbag0
(g53
g2
Ntp169
Rp170
(dp171
g57
I28
sg58
I0
sg59
I01
sg60
I1
sg61
I00
sg62
I36
sg63
I7
sbag0
(g53
g2
Ntp172
Rp173
(dp174
g57
I28
sg58
I0
sg59
I01
sg60
I1
sg61
I00
sg62
I37
sg63
I7
sbag0
(g53
g2
Ntp175
Rp176
(dp177
g57
I28
sg58
I0
sg59
I01
sg60
I1
sg61
I00
sg62
I38
sg63
I7
sbag0
(g53
g2
Ntp178
Rp179
(dp180
g57
I28
sg58
I0
sg59
I01
sg60
I1
sg61
I00
sg62
I39
sg63
I7
sbag0
(g53
g2
Ntp181
Rp182
(dp183
g57
I28
sg58
I0
sg59
I01
sg60
I1
sg61
I00
sg62
I40
sg63
I7
sbag0
(g53
g2
Ntp184
Rp185
(dp186
g57
I28
sg58
I0
sg59
I01
sg60
I1
sg61
I00
sg62
I41
sg63
I7
sbag0
(g53
g2
Ntp187
Rp188
(dp189
g57
I28
sg58
I0
sg59
I01
sg60
I1
sg61
I00
sg62
I42
sg63
I7
sbag0
(g53
g2
Ntp190
Rp191
(dp192
g57
I15
sg58
I0
sg59
I01
sg60
I3
sg61
I00
sg62
I43
sg63
I7
sbag0
(g53
g2
Ntp193
Rp194
(dp195
g57
I28
sg58
I0
sg59
I01
sg60
I1
sg61
I00
sg62
I44
sg63
I7
sbag0
(g53
g2
Ntp196
Rp197
(dp198
g57
I28
sg58
I0
sg59
I01
sg60
I1
sg61
I00
sg62
I45
sg63
I7
sbag0
(g53
g2
Ntp199
Rp200
(dp201
g57
I28
sg58
I0
sg59
I01
sg60
I1
sg61
I00
sg62
I46
sg63
I7
sbag0
(g53
g2
Ntp202
Rp203
(dp204
g57
I28
sg58
I0
sg59
I01
sg60
I1
sg61
I00
sg62
I47
sg63
I7
sbag0
(g53
g2
Ntp205
Rp206
(dp207
g57
I28
sg58
I0
sg59
I01
sg60
I1
sg61
I00
sg62
I48
sg63
I7
sbag0
(g53
g2
Ntp208
Rp209
(dp210
g57
I28
sg58
I0
sg59
I01
sg60
I1
sg61
I00
sg62
I49
sg63
I7
sbag0
(g53
g2
Ntp211
Rp212
(dp213
g57
I28
sg58
I0
sg59
I01
sg60
I1
sg61
I00
sg62
I50
sg63
I7
sbag0
(g53
g2
Ntp214
Rp215
(dp216
g57
I28
sg58
I0
sg59
I01
sg60
I1
sg61
I00
sg62
I51
sg63
I7
sbag0
(g53
g2
Ntp217
Rp218
(dp219
g57
I28
sg58
I0
sg59
I01
sg60
I1
sg61
I00
sg62
I52
sg63
I7
sbag0
(g53
g2
Ntp220
Rp221
(dp222
g57
I28
sg58
I0
sg59
I01
sg60
I1
sg61
I00
sg62
I53
sg63
I7
sbag0
(g53
g2
Ntp223
Rp224
(dp225
g57
I28
sg58
I0
sg59
I01
sg60
I1
sg61
I00
sg62
I54
sg63
I7
sbag0
(g53
g2
Ntp226
Rp227
(dp228
g57
I28
sg58
I0
sg59
I01
sg60
I1
sg61
I00
sg62
I55
sg63
I7
sbag0
(g53
g2
Ntp229
Rp230
(dp231
g57
I28
sg58
I0
sg59
I01
sg60
I1
sg61
I00
sg62
I56
sg63
I7
sbag0
(g53
g2
Ntp232
Rp233
(dp234
g57
I28
sg58
I0
sg59
I01
sg60
I1
sg61
I00
sg62
I57
sg63
I7
sbag0
(g53
g2
Ntp235
Rp236
(dp237
g57
I28
sg58
I0
sg59
I01
sg60
I1
sg61
I00
sg62
I58
sg63
I7
sbag0
(g53
g2
Ntp238
Rp239
(dp240
g57
I28
sg58
I0
sg59
I01
sg60
I1
sg61
I00
sg62
I59
sg63
I7
sbag0
(g53
g2
Ntp241
Rp242
(dp243
g57
I28
sg58
I0
sg59
I01
sg60
I1
sg61
I00
sg62
I60
sg63
I7
sbag0
(g53
g2
Ntp244
Rp245
(dp246
g57
I28
sg58
I0
sg59
I01
sg60
I1
sg61
I00
sg62
I61
sg63
I7
sbag0
(g53
g2
Ntp247
Rp248
(dp249
g57
I28
sg58
I0
sg59
I01
sg60
I1
sg61
I00
sg62
I62
sg63
I7
sbag0
(g53
g2
Ntp250
Rp251
(dp252
g57
I28
sg58
I0
sg59
I01
sg60
I1
sg61
I00
sg62
I63
sg63
I7
sbag0
(g53
g2
Ntp253
Rp254
(dp255
g57
I28
sg58
I0
sg59
I01
sg60
I1
sg61
I00
sg62
I64
sg63
I7
sbag0
(g53
g2
Ntp256
Rp257
(dp258
g57
I28
sg58
I0
sg59
I01
sg60
I1
sg61
I00
sg62
I65
sg63
I7
sbag0
(g53
g2
Ntp259
Rp260
(dp261
g57
I28
sg58
I0
sg59
I01
sg60
I1
sg61
I00
sg62
I66
sg63
I7
sbag0
(g53
g2
Ntp262
Rp263
(dp264
g57
I28
sg58
I0
sg59
I01
sg60
I1
sg61
I00
sg62
I67
sg63
I7
sbag0
(g53
g2
Ntp265
Rp266
(dp267
g57
I28
sg58
I0
sg59
I01
sg60
I1
sg61
I00
sg62
I68
sg63
I7
sbag0
(g53
g2
Ntp268
Rp269
(dp270
g57
I28
sg58
I0
sg59
I01
sg60
I1
sg61
I00
sg62
I69
sg63
I7
sbag0
(g53
g2
Ntp271
Rp272
(dp273
g57
I28
sg58
I0
sg59
I01
sg60
I1
sg61
I00
sg62
I70
sg63
I7
sbag0
(g53
g2
Ntp274
Rp275
(dp276
g57
I28
sg58
I0
sg59
I01
sg60
I1
sg61
I00
sg62
I71
sg63
I7
sbag0
(g53
g2
Ntp277
Rp278
(dp279
g57
I28
sg58
I0
sg59
I01
sg60
I1
sg61
I00
sg62
I72
sg63
I7
sbag0
(g53
g2
Ntp280
Rp281
(dp282
g57
I28
sg58
I0
sg59
I01
sg60
I1
sg61
I00
sg62
I73
sg63
I7
sbag0
(g53
g2
Ntp283
Rp284
(dp285
g57
I28
sg58
I0
sg59
I01
sg60
I1
sg61
I00
sg62
I74
sg63
I7
sbag0
(g53
g2
Ntp286
Rp287
(dp288
g57
I28
sg58
I0
sg59
I01
sg60
I1
sg61
I00
sg62
I75
sg63
I7
sbag0
(g53
g2
Ntp289
Rp290
(dp291
g57
I28
sg58
I0
sg59
I01
sg60
I1
sg61
I00
sg62
I76
sg63
I7
sbag0
(g53
g2
Ntp292
Rp293
(dp294
g57
I28
sg58
I0
sg59
I01
sg60
I1
sg61
I00
sg62
I77
sg63
I7
sbag0
(g53
g2
Ntp295
Rp296
(dp297
g57
I28
sg58
I0
sg59
I01
sg60
I1
sg61
I00
sg62
I78
sg63
I7
sbag0
(g53
g2
Ntp298
Rp299
(dp300
g57
I28
sg58
I0
sg59
I01
sg60
I1
sg61
I00
sg62
I79
sg63
I7
sbag0
(g53
g2
Ntp301
Rp302
(dp303
g57
I28
sg58
I0
sg59
I01
sg60
I1
sg61
I00
sg62
I80
sg63
I7
sbag0
(g53
g2
Ntp304
Rp305
(dp306
g57
I28
sg58
I0
sg59
I01
sg60
I1
sg61
I00
sg62
I81
sg63
I7
sbag0
(g53
g2
Ntp307
Rp308
(dp309
g57
I28
sg58
I0
sg59
I01
sg60
I1
sg61
I00
sg62
I82
sg63
I7
sbag0
(g53
g2
Ntp310
Rp311
(dp312
g57
I28
sg58
I0
sg59
I01
sg60
I1
sg61
I00
sg62
I83
sg63
I7
sbag0
(g53
g2
Ntp313
Rp314
(dp315
g57
I28
sg58
I0
sg59
I01
sg60
I1
sg61
I00
sg62
I84
sg63
I7
sbag0
(g53
g2
Ntp316
Rp317
(dp318
g57
I28
sg58
I0
sg59
I01
sg60
I1
sg61
I00
sg62
I85
sg63
I7
sbag0
(g53
g2
Ntp319
Rp320
(dp321
g57
I28
sg58
I0
sg59
I01
sg60
I1
sg61
I00
sg62
I86
sg63
I7
sbag0
(g53
g2
Ntp322
Rp323
(dp324
g57
I28
sg58
I0
sg59
I01
sg60
I1
sg61
I00
sg62
I87
sg63
I7
sbag0
(g53
g2
Ntp325
Rp326
(dp327
g57
I28
sg58
I0
sg59
I01
sg60
I1
sg61
I00
sg62
I88
sg63
I7
sbag0
(g53
g2
Ntp328
Rp329
(dp330
g57
I28
sg58
I0
sg59
I01
sg60
I1
sg61
I00
sg62
I89
sg63
I7
sbag0
(g53
g2
Ntp331
Rp332
(dp333
g57
I28
sg58
I0
sg59
I01
sg60
I1
sg61
I00
sg62
I90
sg63
I7
sbag0
(g53
g2
Ntp334
Rp335
(dp336
g57
Nsg58
I0
sg59
I00
sg60
I1
sg61
I01
sg62
I91
sg63
I7
sbag0
(g53
g2
Ntp337
Rp338
(dp339
g57
I28
sg58
I0
sg59
I01
sg60
I1
sg61
I00
sg62
I92
sg63
I7
sbag0
(g53
g2
Ntp340
Rp341
(dp342
g57
I28
sg58
I0
sg59
I01
sg60
I1
sg61
I00
sg62
I93
sg63
I7
sbag0
(g53
g2
Ntp343
Rp344
(dp345
g57
I28
sg58
I0
sg59
I01
sg60
I1
sg61
I00
sg62
I94
sg63
I7
sbag0
(g53
g2
Ntp346
Rp347
(dp348
g57
I28
sg58
I0
sg59
I01
sg60
I1
sg61
I00
sg62
I95
sg63
I7
sbag0
(g53
g2
Ntp349
Rp350
(dp351
g57
I28
sg58
I0
sg59
I01
sg60
I1
sg61
I00
sg62
I96
sg63
I7
sbag0
(g53
g2
Ntp352
Rp353
(dp354
g57
I28
sg58
I0
sg59
I01
sg60
I1
sg61
I00
sg62
I97
sg63
I7
sbag0
(g53
g2
Ntp355
Rp356
(dp357
g57
I28
sg58
I0
sg59
I01
sg60
I1
sg61
I00
sg62
I98
sg63
I7
sbag0
(g53
g2
Ntp358
Rp359
(dp360
g57
I28
sg58
I0
sg59
I01
sg60
I1
sg61
I00
sg62
I99
sg63
I7
sbag0
(g53
g2
Ntp361
Rp362
(dp363
g57
I28
sg58
I0
sg59
I01
sg60
I1
sg61
I00
sg62
I100
sg63
I7
sbag0
(g53
g2
Ntp364
Rp365
(dp366
g57
I28
sg58
I0
sg59
I01
sg60
I1
sg61
I00
sg62
I101
sg63
I7
sbag0
(g53
g2
Ntp367
Rp368
(dp369
g57
I28
sg58
I0
sg59
I01
sg60
I1
sg61
I00
sg62
I102
sg63
I7
sbag0
(g53
g2
Ntp370
Rp371
(dp372
g57
I28
sg58
I0
sg59
I01
sg60
I1
sg61
I00
sg62
I103
sg63
I7
sbag0
(g53
g2
Ntp373
Rp374
(dp375
g57
I28
sg58
I0
sg59
I01
sg60
I1
sg61
I00
sg62
I104
sg63
I7
sbag0
(g53
g2
Ntp376
Rp377
(dp378
g57
I28
sg58
I0
sg59
I01
sg60
I1
sg61
I00
sg62
I105
sg63
I7
sbag0
(g53
g2
Ntp379
Rp380
(dp381
g57
I28
sg58
I0
sg59
I01
sg60
I1
sg61
I00
sg62
I106
sg63
I7
sbag0
(g53
g2
Ntp382
Rp383
(dp384
g57
I28
sg58
I0
sg59
I01
sg60
I1
sg61
I00
sg62
I107
sg63
I7
sbag0
(g53
g2
Ntp385
Rp386
(dp387
g57
I28
sg58
I0
sg59
I01
sg60
I1
sg61
I00
sg62
I108
sg63
I7
sbag0
(g53
g2
Ntp388
Rp389
(dp390
g57
I28
sg58
I0
sg59
I01
sg60
I1
sg61
I00
sg62
I109
sg63
I7
sbag0
(g53
g2
Ntp391
Rp392
(dp393
g57
I28
sg58
I0
sg59
I01
sg60
I1
sg61
I00
sg62
I110
sg63
I7
sbag0
(g53
g2
Ntp394
Rp395
(dp396
g57
I28
sg58
I0
sg59
I01
sg60
I1
sg61
I00
sg62
I111
sg63
I7
sbag0
(g53
g2
Ntp397
Rp398
(dp399
g57
I28
sg58
I0
sg59
I01
sg60
I1
sg61
I00
sg62
I112
sg63
I7
sbag0
(g53
g2
Ntp400
Rp401
(dp402
g57
I28
sg58
I0
sg59
I01
sg60
I1
sg61
I00
sg62
I113
sg63
I7
sbag0
(g53
g2
Ntp403
Rp404
(dp405
g57
I28
sg58
I0
sg59
I01
sg60
I1
sg61
I00
sg62
I114
sg63
I7
sbag0
(g53
g2
Ntp406
Rp407
(dp408
g57
I28
sg58
I0
sg59
I01
sg60
I1
sg61
I00
sg62
I115
sg63
I7
sbag0
(g53
g2
Ntp409
Rp410
(dp411
g57
I28
sg58
I0
sg59
I01
sg60
I1
sg61
I00
sg62
I116
sg63
I7
sbag0
(g53
g2
Ntp412
Rp413
(dp414
g57
I28
sg58
I0
sg59
I01
sg60
I1
sg61
I00
sg62
I117
sg63
I7
sbag0
(g53
g2
Ntp415
Rp416
(dp417
g57
I28
sg58
I0
sg59
I01
sg60
I1
sg61
I00
sg62
I118
sg63
I7
sbag0
(g53
g2
Ntp418
Rp419
(dp420
g57
I28
sg58
I0
sg59
I01
sg60
I1
sg61
I00
sg62
I119
sg63
I7
sbag0
(g53
g2
Ntp421
Rp422
(dp423
g57
I28
sg58
I0
sg59
I01
sg60
I1
sg61
I00
sg62
I120
sg63
I7
sbag0
(g53
g2
Ntp424
Rp425
(dp426
g57
I28
sg58
I0
sg59
I01
sg60
I1
sg61
I00
sg62
I121
sg63
I7
sbag0
(g53
g2
Ntp427
Rp428
(dp429
g57
I28
sg58
I0
sg59
I01
sg60
I1
sg61
I00
sg62
I122
sg63
I7
sbag0
(g53
g2
Ntp430
Rp431
(dp432
g57
I28
sg58
I0
sg59
I01
sg60
I1
sg61
I00
sg62
I123
sg63
I7
sbag0
(g53
g2
Ntp433
Rp434
(dp435
g57
I28
sg58
I0
sg59
I01
sg60
I1
sg61
I00
sg62
I124
sg63
I7
sbag0
(g53
g2
Ntp436
Rp437
(dp438
g57
I28
sg58
I0
sg59
I01
sg60
I1
sg61
I00
sg62
I125
sg63
I7
sbag0
(g53
g2
Ntp439
Rp440
(dp441
g57
I28
sg58
I0
sg59
I01
sg60
I1
sg61
I00
sg62
I126
sg63
I7
sbag0
(g53
g2
Ntp442
Rp443
(dp444
g57
I28
sg58
I0
sg59
I01
sg60
I1
sg61
I00
sg62
I127
sg63
I7
sbasS'linksList'
p445
(lp446
(lp447
I5
aI6
aI1
aI3
aI2
aa(lp448
I2
aI4
aI6
aI5
aI3
aa(lp449
I4
aI5
aI6
aI0
aI1
aa(lp450
I6
aI0
aI5
aI2
aI4
aa(lp451
I4
aI5
aI0
aI6
aI3
aa(lp452
I1
aI0
aI6
aI5
aI2
aa(lp453
I5
aI1
aI6
aI0
aI2
aasb.