ccopy_reg
_reconstructor
p0
(cNK_Network.Automata
NK_Automata
p1
c__builtin__
object
p2
Ntp3
Rp4
(dp5
S'stability'
p6
F1.0
sS'stateSpan'
p7
(dp8
I0
I27
sI1
I91
sI2
I27
sI3
I91
sI4
I59
sI5
I123
sI6
I59
sI7
I123
sI8
I11
sI9
I75
sI10
I11
sI11
I75
sI12
I43
sI13
I107
sI14
I43
sI15
I107
sI16
I27
sI17
I91
sI18
I27
sI19
I91
sI20
I59
sI21
I123
sI22
I59
sI23
I123
sI24
I11
sI25
I75
sI26
I11
sI27
I75
sI28
I43
sI29
I107
sI30
I43
sI31
I107
sI32
I25
sI33
I89
sI34
I25
sI35
I89
sI36
I57
sI37
I121
sI38
I57
sI39
I121
sI40
I9
sI41
I73
sI42
I9
sI43
I73
sI44
I41
sI45
I105
sI46
I41
sI47
I105
sI48
I25
sI49
I89
sI50
I25
sI51
I89
sI52
I57
sI53
I121
sI54
I57
sI55
I121
sI56
I9
sI57
I73
sI58
I9
sI59
I73
sI60
I41
sI61
I105
sI62
I41
sI63
I105
sI64
I27
sI65
I91
sI66
I27
sI67
I91
sI68
I59
sI69
I123
sI70
I59
sI71
I123
sI72
I11
sI73
I75
sI74
I11
sI75
I75
sI76
I43
sI77
I107
sI78
I43
sI79
I107
sI80
I27
sI81
I91
sI82
I27
sI83
I91
sI84
I59
sI85
I123
sI86
I59
sI87
I123
sI88
I11
sI89
I75
sI90
I11
sI91
I75
sI92
I43
sI93
I107
sI94
I43
sI95
I107
sI96
I25
sI97
I89
sI98
I25
sI99
I89
sI100
I57
sI101
I121
sI102
I57
sI103
I121
sI104
I9
sI105
I73
sI106
I9
sI107
I73
sI108
I41
sI109
I105
sI110
I41
sI111
I105
sI112
I25
sI113
I89
sI114
I25
sI115
I89
sI116
I57
sI117
I121
sI118
I57
sI119
I121
sI120
I9
sI121
I73
sI122
I9
sI123
I73
sI124
I41
sI125
I105
sI126
I41
sI127
I105
ssS'attractorDict'
p9
(dp10
I1
(lp11
I1
aI127
assS'K'
p12
I1
sS'ordinalNumber'
p13
I-1
sS'N'
p14
I7
sS'basinAmount'
p15
I1
sS'functionsList'
p16
(lp17
g0
(cNK_Network.BoolFunction
BoolFunction
p18
g2
Ntp19
Rp20
(dp21
S'valuesString'
p22
S'01'
p23
sg12
I1
sbag0
(g18
g2
Ntp24
Rp25
(dp26
g22
S'01'
p27
sg12
I1
sbag0
(g18
g2
Ntp28
Rp29
(dp30
g22
S'10'
p31
sg12
I1
sbag0
(g18
g2
Ntp32
Rp33
(dp34
g22
S'11'
p35
sg12
I1
sbag0
(g18
g2
Ntp36
Rp37
(dp38
g22
S'00'
p39
sg12
I1
sbag0
(g18
g2
Ntp40
Rp41
(dp42
g22
S'10'
p43
sg12
I1
sbag0
(g18
g2
Ntp44
Rp45
(dp46
g22
S'11'
p47
sg12
I1
sbasS'expectedReturnTime'
p48
F2.4488188976377954
sS'stateList'
p49
(lp50
g0
(cNK_Network.State
State
p51
g2
Ntp52
Rp53
(dp54
S'firstAttractorStateNumber'
p55
I75
sS'weight'
p56
I0
sS'inBasin'
p57
I01
sS'basinNumber'
p58
I1
sS'inAttractor'
p59
I00
sS'stateNumber'
p60
I0
sS'dimension'
p61
I7
sbag0
(g51
g2
Ntp62
Rp63
(dp64
g55
I75
sg56
I0
sg57
I01
sg58
I1
sg59
I00
sg60
I1
sg61
I7
sbag0
(g51
g2
Ntp65
Rp66
(dp67
g55
I75
sg56
I0
sg57
I01
sg58
I1
sg59
I00
sg60
I2
sg61
I7
sbag0
(g51
g2
Ntp68
Rp69
(dp70
g55
I75
sg56
I0
sg57
I01
sg58
I1
sg59
I00
sg60
I3
sg61
I7
sbag0
(g51
g2
Ntp71
Rp72
(dp73
g55
I75
sg56
I0
sg57
I01
sg58
I1
sg59
I00
sg60
I4
sg61
I7
sbag0
(g51
g2
Ntp74
Rp75
(dp76
g55
I75
sg56
I0
sg57
I01
sg58
I1
sg59
I00
sg60
I5
sg61
I7
sbag0
(g51
g2
Ntp77
Rp78
(dp79
g55
I75
sg56
I0
sg57
I01
sg58
I1
sg59
I00
sg60
I6
sg61
I7
sbag0
(g51
g2
Ntp80
Rp81
(dp82
g55
I75
sg56
I0
sg57
I01
sg58
I1
sg59
I00
sg60
I7
sg61
I7
sbag0
(g51
g2
Ntp83
Rp84
(dp85
g55
I75
sg56
I0
sg57
I01
sg58
I1
sg59
I00
sg60
I8
sg61
I7
sbag0
(g51
g2
Ntp86
Rp87
(dp88
g55
I75
sg56
I0
sg57
I01
sg58
I1
sg59
I00
sg60
I9
sg61
I7
sbag0
(g51
g2
Ntp89
Rp90
(dp91
g55
I75
sg56
I0
sg57
I01
sg58
I1
sg59
I00
sg60
I10
sg61
I7
sbag0
(g51
g2
Ntp92
Rp93
(dp94
g55
I75
sg56
I0
sg57
I01
sg58
I1
sg59
I00
sg60
I11
sg61
I7
sbag0
(g51
g2
Ntp95
Rp96
(dp97
g55
I75
sg56
I0
sg57
I01
sg58
I1
sg59
I00
sg60
I12
sg61
I7
sbag0
(g51
g2
Ntp98
Rp99
(dp100
g55
I75
sg56
I0
sg57
I01
sg58
I1
sg59
I00
sg60
I13
sg61
I7
sbag0
(g51
g2
Ntp101
Rp102
(dp103
g55
I75
sg56
I0
sg57
I01
sg58
I1
sg59
I00
sg60
I14
sg61
I7
sbag0
(g51
g2
Ntp104
Rp105
(dp106
g55
I75
sg56
I0
sg57
I01
sg58
I1
sg59
I00
sg60
I15
sg61
I7
sbag0
(g51
g2
Ntp107
Rp108
(dp109
g55
I75
sg56
I0
sg57
I01
sg58
I1
sg59
I00
sg60
I16
sg61
I7
sbag0
(g51
g2
Ntp110
Rp111
(dp112
g55
I75
sg56
I0
sg57
I01
sg58
I1
sg59
I00
sg60
I17
sg61
I7
sbag0
(g51
g2
Ntp113
Rp114
(dp115
g55
I75
sg56
I0
sg57
I01
sg58
I1
sg59
I00
sg60
I18
sg61
I7
sbag0
(g51
g2
Ntp116
Rp117
(dp118
g55
I75
sg56
I0
sg57
I01
sg58
I1
sg59
I00
sg60
I19
sg61
I7
sbag0
(g51
g2
Ntp119
Rp120
(dp121
g55
I75
sg56
I0
sg57
I01
sg58
I1
sg59
I00
sg60
I20
sg61
I7
sbag0
(g51
g2
Ntp122
Rp123
(dp124
g55
I75
sg56
I0
sg57
I01
sg58
I1
sg59
I00
sg60
I21
sg61
I7
sbag0
(g51
g2
Ntp125
Rp126
(dp127
g55
I75
sg56
I0
sg57
I01
sg58
I1
sg59
I00
sg60
I22
sg61
I7
sbag0
(g51
g2
Ntp128
Rp129
(dp130
g55
I75
sg56
I0
sg57
I01
sg58
I1
sg59
I00
sg60
I23
sg61
I7
sbag0
(g51
g2
Ntp131
Rp132
(dp133
g55
I75
sg56
I0
sg57
I01
sg58
I1
sg59
I00
sg60
I24
sg61
I7
sbag0
(g51
g2
Ntp134
Rp135
(dp136
g55
I75
sg56
I0
sg57
I01
sg58
I1
sg59
I00
sg60
I25
sg61
I7
sbag0
(g51
g2
Ntp137
Rp138
(dp139
g55
I75
sg56
I0
sg57
I01
sg58
I1
sg59
I00
sg60
I26
sg61
I7
sbag0
(g51
g2
Ntp140
Rp141
(dp142
g55
I75
sg56
I0
sg57
I01
sg58
I1
sg59
I00
sg60
I27
sg61
I7
sbag0
(g51
g2
Ntp143
Rp144
(dp145
g55
I75
sg56
I0
sg57
I01
sg58
I1
sg59
I00
sg60
I28
sg61
I7
sbag0
(g51
g2
Ntp146
Rp147
(dp148
g55
I75
sg56
I0
sg57
I01
sg58
I1
sg59
I00
sg60
I29
sg61
I7
sbag0
(g51
g2
Ntp149
Rp150
(dp151
g55
I75
sg56
I0
sg57
I01
sg58
I1
sg59
I00
sg60
I30
sg61
I7
sbag0
(g51
g2
Ntp152
Rp153
(dp154
g55
I75
sg56
I0
sg57
I01
sg58
I1
sg59
I00
sg60
I31
sg61
I7
sbag0
(g51
g2
Ntp155
Rp156
(dp157
g55
I75
sg56
I0
sg57
I01
sg58
I1
sg59
I00
sg60
I32
sg61
I7
sbag0
(g51
g2
Ntp158
Rp159
(dp160
g55
I75
sg56
I0
sg57
I01
sg58
I1
sg59
I00
sg60
I33
sg61
I7
sbag0
(g51
g2
Ntp161
Rp162
(dp163
g55
I75
sg56
I0
sg57
I01
sg58
I1
sg59
I00
sg60
I34
sg61
I7
sbag0
(g51
g2
Ntp164
Rp165
(dp166
g55
I75
sg56
I0
sg57
I01
sg58
I1
sg59
I00
sg60
I35
sg61
I7
sbag0
(g51
g2
Ntp167
Rp168
(dp169
g55
I75
sg56
I0
sg57
I01
sg58
I1
sg59
I00
sg60
I36
sg61
I7
sbag0
(g51
g2
Ntp170
Rp171
(dp172
g55
I75
sg56
I0
sg57
I01
sg58
I1
sg59
I00
sg60
I37
sg61
I7
sbag0
(g51
g2
Ntp173
Rp174
(dp175
g55
I75
sg56
I0
sg57
I01
sg58
I1
sg59
I00
sg60
I38
sg61
I7
sbag0
(g51
g2
Ntp176
Rp177
(dp178
g55
I75
sg56
I0
sg57
I01
sg58
I1
sg59
I00
sg60
I39
sg61
I7
sbag0
(g51
g2
Ntp179
Rp180
(dp181
g55
I75
sg56
I0
sg57
I01
sg58
I1
sg59
I00
sg60
I40
sg61
I7
sbag0
(g51
g2
Ntp182
Rp183
(dp184
g55
I75
sg56
I0
sg57
I01
sg58
I1
sg59
I00
sg60
I41
sg61
I7
sbag0
(g51
g2
Ntp185
Rp186
(dp187
g55
I75
sg56
I0
sg57
I01
sg58
I1
sg59
I00
sg60
I42
sg61
I7
sbag0
(g51
g2
Ntp188
Rp189
(dp190
g55
I75
sg56
I0
sg57
I01
sg58
I1
sg59
I00
sg60
I43
sg61
I7
sbag0
(g51
g2
Ntp191
Rp192
(dp193
g55
I75
sg56
I0
sg57
I01
sg58
I1
sg59
I00
sg60
I44
sg61
I7
sbag0
(g51
g2
Ntp194
Rp195
(dp196
g55
I75
sg56
I0
sg57
I01
sg58
I1
sg59
I00
sg60
I45
sg61
I7
sbag0
(g51
g2
Ntp197
Rp198
(dp199
g55
I75
sg56
I0
sg57
I01
sg58
I1
sg59
I00
sg60
I46
sg61
I7
sbag0
(g51
g2
Ntp200
Rp201
(dp202
g55
I75
sg56
I0
sg57
I01
sg58
I1
sg59
I00
sg60
I47
sg61
I7
sbag0
(g51
g2
Ntp203
Rp204
(dp205
g55
I75
sg56
I0
sg57
I01
sg58
I1
sg59
I00
sg60
I48
sg61
I7
sbag0
(g51
g2
Ntp206
Rp207
(dp208
g55
I75
sg56
I0
sg57
I01
sg58
I1
sg59
I00
sg60
I49
sg61
I7
sbag0
(g51
g2
Ntp209
Rp210
(dp211
g55
I75
sg56
I0
sg57
I01
sg58
I1
sg59
I00
sg60
I50
sg61
I7
sbag0
(g51
g2
Ntp212
Rp213
(dp214
g55
I75
sg56
I0
sg57
I01
sg58
I1
sg59
I00
sg60
I51
sg61
I7
sbag0
(g51
g2
Ntp215
Rp216
(dp217
g55
I75
sg56
I0
sg57
I01
sg58
I1
sg59
I00
sg60
I52
sg61
I7
sbag0
(g51
g2
Ntp218
Rp219
(dp220
g55
I75
sg56
I0
sg57
I01
sg58
I1
sg59
I00
sg60
I53
sg61
I7
sbag0
(g51
g2
Ntp221
Rp222
(dp223
g55
I75
sg56
I0
sg57
I01
sg58
I1
sg59
I00
sg60
I54
sg61
I7
sbag0
(g51
g2
Ntp224
Rp225
(dp226
g55
I75
sg56
I0
sg57
I01
sg58
I1
sg59
I00
sg60
I55
sg61
I7
sbag0
(g51
g2
Ntp227
Rp228
(dp229
g55
I75
sg56
I0
sg57
I01
sg58
I1
sg59
I00
sg60
I56
sg61
I7
sbag0
(g51
g2
Ntp230
Rp231
(dp232
g55
I75
sg56
I0
sg57
I01
sg58
I1
sg59
I00
sg60
I57
sg61
I7
sbag0
(g51
g2
Ntp233
Rp234
(dp235
g55
I75
sg56
I0
sg57
I01
sg58
I1
sg59
I00
sg60
I58
sg61
I7
sbag0
(g51
g2
Ntp236
Rp237
(dp238
g55
I75
sg56
I0
sg57
I01
sg58
I1
sg59
I00
sg60
I59
sg61
I7
sbag0
(g51
g2
Ntp239
Rp240
(dp241
g55
I75
sg56
I0
sg57
I01
sg58
I1
sg59
I00
sg60
I60
sg61
I7
sbag0
(g51
g2
Ntp242
Rp243
(dp244
g55
I75
sg56
I0
sg57
I01
sg58
I1
sg59
I00
sg60
I61
sg61
I7
sbag0
(g51
g2
Ntp245
Rp246
(dp247
g55
I75
sg56
I0
sg57
I01
sg58
I1
sg59
I00
sg60
I62
sg61
I7
sbag0
(g51
g2
Ntp248
Rp249
(dp250
g55
I75
sg56
I0
sg57
I01
sg58
I1
sg59
I00
sg60
I63
sg61
I7
sbag0
(g51
g2
Ntp251
Rp252
(dp253
g55
I75
sg56
I0
sg57
I01
sg58
I1
sg59
I00
sg60
I64
sg61
I7
sbag0
(g51
g2
Ntp254
Rp255
(dp256
g55
I75
sg56
I0
sg57
I01
sg58
I1
sg59
I00
sg60
I65
sg61
I7
sbag0
(g51
g2
Ntp257
Rp258
(dp259
g55
I75
sg56
I0
sg57
I01
sg58
I1
sg59
I00
sg60
I66
sg61
I7
sbag0
(g51
g2
Ntp260
Rp261
(dp262
g55
I75
sg56
I0
sg57
I01
sg58
I1
sg59
I00
sg60
I67
sg61
I7
sbag0
(g51
g2
Ntp263
Rp264
(dp265
g55
I75
sg56
I0
sg57
I01
sg58
I1
sg59
I00
sg60
I68
sg61
I7
sbag0
(g51
g2
Ntp266
Rp267
(dp268
g55
I75
sg56
I0
sg57
I01
sg58
I1
sg59
I00
sg60
I69
sg61
I7
sbag0
(g51
g2
Ntp269
Rp270
(dp271
g55
I75
sg56
I0
sg57
I01
sg58
I1
sg59
I00
sg60
I70
sg61
I7
sbag0
(g51
g2
Ntp272
Rp273
(dp274
g55
I75
sg56
I0
sg57
I01
sg58
I1
sg59
I00
sg60
I71
sg61
I7
sbag0
(g51
g2
Ntp275
Rp276
(dp277
g55
I75
sg56
I0
sg57
I01
sg58
I1
sg59
I00
sg60
I72
sg61
I7
sbag0
(g51
g2
Ntp278
Rp279
(dp280
g55
I75
sg56
I0
sg57
I01
sg58
I1
sg59
I00
sg60
I73
sg61
I7
sbag0
(g51
g2
Ntp281
Rp282
(dp283
g55
I75
sg56
I0
sg57
I01
sg58
I1
sg59
I00
sg60
I74
sg61
I7
sbag0
(g51
g2
Ntp284
Rp285
(dp286
g55
Nsg56
I127
sg57
I00
sg58
I1
sg59
I01
sg60
I75
sg61
I7
sbag0
(g51
g2
Ntp287
Rp288
(dp289
g55
I75
sg56
I0
sg57
I01
sg58
I1
sg59
I00
sg60
I76
sg61
I7
sbag0
(g51
g2
Ntp290
Rp291
(dp292
g55
I75
sg56
I0
sg57
I01
sg58
I1
sg59
I00
sg60
I77
sg61
I7
sbag0
(g51
g2
Ntp293
Rp294
(dp295
g55
I75
sg56
I0
sg57
I01
sg58
I1
sg59
I00
sg60
I78
sg61
I7
sbag0
(g51
g2
Ntp296
Rp297
(dp298
g55
I75
sg56
I0
sg57
I01
sg58
I1
sg59
I00
sg60
I79
sg61
I7
sbag0
(g51
g2
Ntp299
Rp300
(dp301
g55
I75
sg56
I0
sg57
I01
sg58
I1
sg59
I00
sg60
I80
sg61
I7
sbag0
(g51
g2
Ntp302
Rp303
(dp304
g55
I75
sg56
I0
sg57
I01
sg58
I1
sg59
I00
sg60
I81
sg61
I7
sbag0
(g51
g2
Ntp305
Rp306
(dp307
g55
I75
sg56
I0
sg57
I01
sg58
I1
sg59
I00
sg60
I82
sg61
I7
sbag0
(g51
g2
Ntp308
Rp309
(dp310
g55
I75
sg56
I0
sg57
I01
sg58
I1
sg59
I00
sg60
I83
sg61
I7
sbag0
(g51
g2
Ntp311
Rp312
(dp313
g55
I75
sg56
I0
sg57
I01
sg58
I1
sg59
I00
sg60
I84
sg61
I7
sbag0
(g51
g2
Ntp314
Rp315
(dp316
g55
I75
sg56
I0
sg57
I01
sg58
I1
sg59
I00
sg60
I85
sg61
I7
sbag0
(g51
g2
Ntp317
Rp318
(dp319
g55
I75
sg56
I0
sg57
I01
sg58
I1
sg59
I00
sg60
I86
sg61
I7
sbag0
(g51
g2
Ntp320
Rp321
(dp322
g55
I75
sg56
I0
sg57
I01
sg58
I1
sg59
I00
sg60
I87
sg61
I7
sbag0
(g51
g2
Ntp323
Rp324
(dp325
g55
I75
sg56
I0
sg57
I01
sg58
I1
sg59
I00
sg60
I88
sg61
I7
sbag0
(g51
g2
Ntp326
Rp327
(dp328
g55
I75
sg56
I0
sg57
I01
sg58
I1
sg59
I00
sg60
I89
sg61
I7
sbag0
(g51
g2
Ntp329
Rp330
(dp331
g55
I75
sg56
I0
sg57
I01
sg58
I1
sg59
I00
sg60
I90
sg61
I7
sbag0
(g51
g2
Ntp332
Rp333
(dp334
g55
I75
sg56
I0
sg57
I01
sg58
I1
sg59
I00
sg60
I91
sg61
I7
sbag0
(g51
g2
Ntp335
Rp336
(dp337
g55
I75
sg56
I0
sg57
I01
sg58
I1
sg59
I00
sg60
I92
sg61
I7
sbag0
(g51
g2
Ntp338
Rp339
(dp340
g55
I75
sg56
I0
sg57
I01
sg58
I1
sg59
I00
sg60
I93
sg61
I7
sbag0
(g51
g2
Ntp341
Rp342
(dp343
g55
I75
sg56
I0
sg57
I01
sg58
I1
sg59
I00
sg60
I94
sg61
I7
sbag0
(g51
g2
Ntp344
Rp345
(dp346
g55
I75
sg56
I0
sg57
I01
sg58
I1
sg59
I00
sg60
I95
sg61
I7
sbag0
(g51
g2
Ntp347
Rp348
(dp349
g55
I75
sg56
I0
sg57
I01
sg58
I1
sg59
I00
sg60
I96
sg61
I7
sbag0
(g51
g2
Ntp350
Rp351
(dp352
g55
I75
sg56
I0
sg57
I01
sg58
I1
sg59
I00
sg60
I97
sg61
I7
sbag0
(g51
g2
Ntp353
Rp354
(dp355
g55
I75
sg56
I0
sg57
I01
sg58
I1
sg59
I00
sg60
I98
sg61
I7
sbag0
(g51
g2
Ntp356
Rp357
(dp358
g55
I75
sg56
I0
sg57
I01
sg58
I1
sg59
I00
sg60
I99
sg61
I7
sbag0
(g51
g2
Ntp359
Rp360
(dp361
g55
I75
sg56
I0
sg57
I01
sg58
I1
sg59
I00
sg60
I100
sg61
I7
sbag0
(g51
g2
Ntp362
Rp363
(dp364
g55
I75
sg56
I0
sg57
I01
sg58
I1
sg59
I00
sg60
I101
sg61
I7
sbag0
(g51
g2
Ntp365
Rp366
(dp367
g55
I75
sg56
I0
sg57
I01
sg58
I1
sg59
I00
sg60
I102
sg61
I7
sbag0
(g51
g2
Ntp368
Rp369
(dp370
g55
I75
sg56
I0
sg57
I01
sg58
I1
sg59
I00
sg60
I103
sg61
I7
sbag0
(g51
g2
Ntp371
Rp372
(dp373
g55
I75
sg56
I0
sg57
I01
sg58
I1
sg59
I00
sg60
I104
sg61
I7
sbag0
(g51
g2
Ntp374
Rp375
(dp376
g55
I75
sg56
I0
sg57
I01
sg58
I1
sg59
I00
sg60
I105
sg61
I7
sbag0
(g51
g2
Ntp377
Rp378
(dp379
g55
I75
sg56
I0
sg57
I01
sg58
I1
sg59
I00
sg60
I106
sg61
I7
sbag0
(g51
g2
Ntp380
Rp381
(dp382
g55
I75
sg56
I0
sg57
I01
sg58
I1
sg59
I00
sg60
I107
sg61
I7
sbag0
(g51
g2
Ntp383
Rp384
(dp385
g55
I75
sg56
I0
sg57
I01
sg58
I1
sg59
I00
sg60
I108
sg61
I7
sbag0
(g51
g2
Ntp386
Rp387
(dp388
g55
I75
sg56
I0
sg57
I01
sg58
I1
sg59
I00
sg60
I109
sg61
I7
sbag0
(g51
g2
Ntp389
Rp390
(dp391
g55
I75
sg56
I0
sg57
I01
sg58
I1
sg59
I00
sg60
I110
sg61
I7
sbag0
(g51
g2
Ntp392
Rp393
(dp394
g55
I75
sg56
I0
sg57
I01
sg58
I1
sg59
I00
sg60
I111
sg61
I7
sbag0
(g51
g2
Ntp395
Rp396
(dp397
g55
I75
sg56
I0
sg57
I01
sg58
I1
sg59
I00
sg60
I112
sg61
I7
sbag0
(g51
g2
Ntp398
Rp399
(dp400
g55
I75
sg56
I0
sg57
I01
sg58
I1
sg59
I00
sg60
I113
sg61
I7
sbag0
(g51
g2
Ntp401
Rp402
(dp403
g55
I75
sg56
I0
sg57
I01
sg58
I1
sg59
I00
sg60
I114
sg61
I7
sbag0
(g51
g2
Ntp404
Rp405
(dp406
g55
I75
sg56
I0
sg57
I01
sg58
I1
sg59
I00
sg60
I115
sg61
I7
sbag0
(g51
g2
Ntp407
Rp408
(dp409
g55
I75
sg56
I0
sg57
I01
sg58
I1
sg59
I00
sg60
I116
sg61
I7
sbag0
(g51
g2
Ntp410
Rp411
(dp412
g55
I75
sg56
I0
sg57
I01
sg58
I1
sg59
I00
sg60
I117
sg61
I7
sbag0
(g51
g2
Ntp413
Rp414
(dp415
g55
I75
sg56
I0
sg57
I01
sg58
I1
sg59
I00
sg60
I118
sg61
I7
sbag0
(g51
g2
Ntp416
Rp417
(dp418
g55
I75
sg56
I0
sg57
I01
sg58
I1
sg59
I00
sg60
I119
sg61
I7
sbag0
(g51
g2
Ntp419
Rp420
(dp421
g55
I75
sg56
I0
sg57
I01
sg58
I1
sg59
I00
sg60
I120
sg61
I7
sbag0
(g51
g2
Ntp422
Rp423
(dp424
g55
I75
sg56
I0
sg57
I01
sg58
I1
sg59
I00
sg60
I121
sg61
I7
sbag0
(g51
g2
Ntp425
Rp426
(dp427
g55
I75
sg56
I0
sg57
I01
sg58
I1
sg59
I00
sg60
I122
sg61
I7
sbag0
(g51
g2
Ntp428
Rp429
(dp430
g55
I75
sg56
I0
sg57
I01
sg58
I1
sg59
I00
sg60
I123
sg61
I7
sbag0
(g51
g2
Ntp431
Rp432
(dp433
g55
I75
sg56
I0
sg57
I01
sg58
I1
sg59
I00
sg60
I124
sg61
I7
sbag0
(g51
g2
Ntp434
Rp435
(dp436
g55
I75
sg56
I0
sg57
I01
sg58
I1
sg59
I00
sg60
I125
sg61
I7
sbag0
(g51
g2
Ntp437
Rp438
(dp439
g55
I75
sg56
I0
sg57
I01
sg58
I1
sg59
I00
sg60
I126
sg61
I7
sbag0
(g51
g2
Ntp440
Rp441
(dp442
g55
I75
sg56
I0
sg57
I01
sg58
I1
sg59
I00
sg60
I127
sg61
I7
sbasS'linksList'
p443
(lp444
(lp445
I6
aa(lp446
I4
aa(lp447
I3
aa(lp448
I6
aa(lp449
I2
aa(lp450
I1
aa(lp451
I2
aasb.