ccopy_reg
_reconstructor
p0
(cNK_Network.Automata
NK_Automata
p1
c__builtin__
object
p2
Ntp3
Rp4
(dp5
S'stability'
p6
F1.0
sS'stateSpan'
p7
(dp8
I0
I1
sI1
I4
sI2
I1
sI3
I0
sI4
I2
sI5
I4
sI6
I3
sI7
I1
ssS'attractorDict'
p9
(dp10
I1
(lp11
I3
aI5
assS'K'
p12
I3
sS'ordinalNumber'
p13
I-1
sS'N'
p14
I3
sS'basinAmount'
p15
I1
sS'functionsList'
p16
(lp17
g0
(cNK_Network.BoolFunction
BoolFunction
p18
g2
Ntp19
Rp20
(dp21
S'valuesString'
p22
S'01010000'
p23
sg12
I3
sbag0
(g18
g2
Ntp24
Rp25
(dp26
g22
S'00001010'
p27
sg12
I3
sbag0
(g18
g2
Ntp28
Rp29
(dp30
g22
S'10001011'
p31
sg12
I3
sbasS'expectedReturnTime'
p32
F1.6
sS'stateList'
p33
(lp34
g0
(cNK_Network.State
State
p35
g2
Ntp36
Rp37
(dp38
S'firstAttractorStateNumber'
p39
I1
sS'weight'
p40
I0
sS'inBasin'
p41
I01
sS'basinNumber'
p42
I1
sS'inAttractor'
p43
I00
sS'stateNumber'
p44
I0
sS'dimension'
p45
I3
sbag0
(g35
g2
Ntp46
Rp47
(dp48
g39
Nsg40
I4
sg41
I00
sg42
I1
sg43
I01
sg44
I1
sg45
I3
sbag0
(g35
g2
Ntp49
Rp50
(dp51
g39
Nsg40
I0
sg41
I00
sg42
I1
sg43
I01
sg44
I2
sg45
I3
sbag0
(g35
g2
Ntp52
Rp53
(dp54
g39
I1
sg40
I0
sg41
I01
sg42
I1
sg43
I00
sg44
I3
sg45
I3
sbag0
(g35
g2
Ntp55
Rp56
(dp57
g39
Nsg40
I1
sg41
I00
sg42
I1
sg43
I01
sg44
I4
sg45
I3
sbag0
(g35
g2
Ntp58
Rp59
(dp60
g39
I4
sg40
I0
sg41
I01
sg42
I1
sg43
I00
sg44
I5
sg45
I3
sbag0
(g35
g2
Ntp61
Rp62
(dp63
g39
I1
sg40
I0
sg41
I01
sg42
I1
sg43
I00
sg44
I6
sg45
I3
sbag0
(g35
g2
Ntp64
Rp65
(dp66
g39
I1
sg40
I0
sg41
I01
sg42
I1
sg43
I00
sg44
I7
sg45
I3
sbasS'linksList'
p67
(lp68
(lp69
I1
aI0
aI2
aa(lp70
I0
aI1
aI2
aa(lp71
I1
aI0
aI2
aasb.