ccopy_reg
_reconstructor
p0
(cNK_Network.Automata
NK_Automata
p1
c__builtin__
object
p2
Ntp3
Rp4
(dp5
S'stability'
p6
F0.587890625
sS'stateSpan'
p7
(dp8
S'10000'
p9
S'10110'
p10
sS'10001'
p11
S'00110'
p12
sS'10101'
p13
S'10011'
p14
sS'10100'
p15
S'01010'
p16
sS'01101'
p17
S'10111'
p18
sS'01100'
p19
S'00110'
p20
sS'11111'
p21
S'01011'
p22
sS'11110'
p23
S'10001'
p24
sS'11010'
p25
S'11010'
p26
sS'11011'
p27
S'11001'
p28
sS'01000'
p29
S'11111'
p30
sS'01001'
p31
S'01111'
p32
sS'00111'
p33
S'11000'
p34
sS'00110'
p35
S'10001'
p36
sS'00010'
p37
S'01100'
p38
sS'00011'
p39
S'00010'
p40
sS'10011'
p41
S'00000'
p42
sS'10010'
p43
S'11110'
p44
sS'10110'
p45
S'00011'
p46
sS'10111'
p47
S'01111'
p48
sS'01110'
p49
S'01101'
p50
sS'01111'
p51
S'00010'
p52
sS'11001'
p53
S'01101'
p54
sS'11000'
p55
S'01100'
p56
sS'11100'
p57
S'01001'
p58
sS'11101'
p59
S'00011'
p60
sS'01011'
p61
S'11111'
p62
sS'01010'
p63
S'11101'
p64
sS'00001'
p65
S'10101'
p66
sS'00000'
p67
S'00001'
p68
sS'00100'
p69
S'11110'
p70
sS'00101'
p71
S'10110'
p72
ssS'attractorDict'
p73
(dp74
I1
(lp75
I4
aI0
asI2
(lp76
I2
aI22
asI3
(lp77
I2
aI1
asI4
(lp78
I1
aI0
assS'K'
p79
I5
sS'ordinalNumber'
p80
I-1
sS'N'
p81
I5
sS'basinAmount'
p82
I4
sS'functionsList'
p83
(lp84
g0
(cNK_Network.BoolFunction
BoolFunction
p85
g2
Ntp86
Rp87
(dp88
S'valuesString'
p89
S'01101101001011001000010011110010'
p90
sg79
I5
sbag0
(g85
g2
Ntp91
Rp92
(dp93
g89
S'01111001010100100111110001010011'
p94
sg79
I5
sbag0
(g85
g2
Ntp95
Rp96
(dp97
g89
S'01111111101100101111000010000100'
p98
sg79
I5
sbag0
(g85
g2
Ntp99
Rp100
(dp101
g89
S'01111010000011100111101111010011'
p102
sg79
I5
sbag0
(g85
g2
Ntp103
Rp104
(dp105
g89
S'11001111000001010010011001111111'
p106
sg79
I5
sbasS'expectedReturnTime'
p107
F3.739130434782609
sS'stateList'
p108
(lp109
g0
(cNK_Network.State
State
p110
g2
Ntp111
Rp112
(dp113
S'firstAttractorStateNumber'
p114
NsS'weight'
p115
I0
sS'inBasin'
p116
I00
sS'basinNumber'
p117
I1
sS'inAttractor'
p118
I01
sS'stateNumber'
p119
I0
sS'dimension'
p120
I5
sbag0
(g110
g2
Ntp121
Rp122
(dp123
g114
Nsg115
I0
sg116
I00
sg117
I1
sg118
I01
sg119
I1
sg120
I5
sbag0
(g110
g2
Ntp124
Rp125
(dp126
g114
I6
sg115
I0
sg116
I01
sg117
I2
sg118
I00
sg119
I2
sg120
I5
sbag0
(g110
g2
Ntp127
Rp128
(dp129
g114
I6
sg115
I0
sg116
I01
sg117
I2
sg118
I00
sg119
I3
sg120
I5
sbag0
(g110
g2
Ntp130
Rp131
(dp132
g114
I17
sg115
I0
sg116
I01
sg117
I2
sg118
I00
sg119
I4
sg120
I5
sbag0
(g110
g2
Ntp133
Rp134
(dp135
g114
I6
sg115
I0
sg116
I01
sg117
I2
sg118
I00
sg119
I5
sg120
I5
sbag0
(g110
g2
Ntp136
Rp137
(dp138
g114
Nsg115
I19
sg116
I00
sg117
I2
sg118
I01
sg119
I6
sg120
I5
sbag0
(g110
g2
Ntp139
Rp140
(dp141
g114
I6
sg115
I0
sg116
I01
sg117
I2
sg118
I00
sg119
I7
sg120
I5
sbag0
(g110
g2
Ntp142
Rp143
(dp144
g114
I31
sg115
I0
sg116
I01
sg117
I3
sg118
I00
sg119
I8
sg120
I5
sbag0
(g110
g2
Ntp145
Rp146
(dp147
g114
I6
sg115
I0
sg116
I01
sg117
I2
sg118
I00
sg119
I9
sg120
I5
sbag0
(g110
g2
Ntp148
Rp149
(dp150
g114
I6
sg115
I0
sg116
I01
sg117
I2
sg118
I00
sg119
I10
sg120
I5
sbag0
(g110
g2
Ntp151
Rp152
(dp153
g114
Nsg115
I0
sg116
I00
sg117
I3
sg118
I01
sg119
I11
sg120
I5
sbag0
(g110
g2
Ntp154
Rp155
(dp156
g114
I6
sg115
I0
sg116
I01
sg117
I2
sg118
I00
sg119
I12
sg120
I5
sbag0
(g110
g2
Ntp157
Rp158
(dp159
g114
I6
sg115
I0
sg116
I01
sg117
I2
sg118
I00
sg119
I13
sg120
I5
sbag0
(g110
g2
Ntp160
Rp161
(dp162
g114
I6
sg115
I0
sg116
I01
sg117
I2
sg118
I00
sg119
I14
sg120
I5
sbag0
(g110
g2
Ntp163
Rp164
(dp165
g114
I6
sg115
I0
sg116
I01
sg117
I2
sg118
I00
sg119
I15
sg120
I5
sbag0
(g110
g2
Ntp166
Rp167
(dp168
g114
I6
sg115
I0
sg116
I01
sg117
I2
sg118
I00
sg119
I16
sg120
I5
sbag0
(g110
g2
Ntp169
Rp170
(dp171
g114
Nsg115
I3
sg116
I00
sg117
I2
sg118
I01
sg119
I17
sg120
I5
sbag0
(g110
g2
Ntp172
Rp173
(dp174
g114
I17
sg115
I0
sg116
I01
sg117
I2
sg118
I00
sg119
I18
sg120
I5
sbag0
(g110
g2
Ntp175
Rp176
(dp177
g114
Nsg115
I0
sg116
I00
sg117
I1
sg118
I01
sg119
I19
sg120
I5
sbag0
(g110
g2
Ntp178
Rp179
(dp180
g114
I6
sg115
I0
sg116
I01
sg117
I2
sg118
I00
sg119
I20
sg120
I5
sbag0
(g110
g2
Ntp181
Rp182
(dp183
g114
Nsg115
I0
sg116
I00
sg117
I1
sg118
I01
sg119
I21
sg120
I5
sbag0
(g110
g2
Ntp184
Rp185
(dp186
g114
I6
sg115
I0
sg116
I01
sg117
I2
sg118
I00
sg119
I22
sg120
I5
sbag0
(g110
g2
Ntp187
Rp188
(dp189
g114
I6
sg115
I0
sg116
I01
sg117
I2
sg118
I00
sg119
I23
sg120
I5
sbag0
(g110
g2
Ntp190
Rp191
(dp192
g114
I6
sg115
I0
sg116
I01
sg117
I2
sg118
I00
sg119
I24
sg120
I5
sbag0
(g110
g2
Ntp193
Rp194
(dp195
g114
I6
sg115
I0
sg116
I01
sg117
I2
sg118
I00
sg119
I25
sg120
I5
sbag0
(g110
g2
Ntp196
Rp197
(dp198
g114
Nsg115
I0
sg116
I00
sg117
I4
sg118
I01
sg119
I26
sg120
I5
sbag0
(g110
g2
Ntp199
Rp200
(dp201
g114
I6
sg115
I0
sg116
I01
sg117
I2
sg118
I00
sg119
I27
sg120
I5
sbag0
(g110
g2
Ntp202
Rp203
(dp204
g114
I6
sg115
I0
sg116
I01
sg117
I2
sg118
I00
sg119
I28
sg120
I5
sbag0
(g110
g2
Ntp205
Rp206
(dp207
g114
I6
sg115
I0
sg116
I01
sg117
I2
sg118
I00
sg119
I29
sg120
I5
sbag0
(g110
g2
Ntp208
Rp209
(dp210
g114
I17
sg115
I0
sg116
I01
sg117
I2
sg118
I00
sg119
I30
sg120
I5
sbag0
(g110
g2
Ntp211
Rp212
(dp213
g114
Nsg115
I1
sg116
I00
sg117
I3
sg118
I01
sg119
I31
sg120
I5
sbasS'linksList'
p214
(lp215
(lp216
I1
aI3
aI2
aI0
aI4
aa(lp217
I0
aI4
aI2
aI3
aI1
aa(lp218
I0
aI3
aI2
aI1
aI4
aa(lp219
I4
aI3
aI0
aI2
aI1
aa(lp220
I2
aI0
aI1
aI3
aI4
aasb.