ccopy_reg
_reconstructor
p0
(cNK_Network.Automata
NK_Automata
p1
c__builtin__
object
p2
Ntp3
Rp4
(dp5
S'stability'
p6
F0.4431304931640625
sS'stateSpan'
p7
(dp8
I0
I504
sI1
I511
sI2
I189
sI3
I190
sI4
I248
sI5
I251
sI6
I185
sI7
I186
sI8
I376
sI9
I381
sI10
I45
sI11
I44
sI12
I120
sI13
I121
sI14
I41
sI15
I40
sI16
I102
sI17
I71
sI18
I240
sI19
I215
sI20
I354
sI21
I323
sI22
I244
sI23
I215
sI24
I228
sI25
I197
sI26
I114
sI27
I87
sI28
I480
sI29
I481
sI30
I118
sI31
I119
sI32
I504
sI33
I511
sI34
I173
sI35
I174
sI36
I248
sI37
I251
sI38
I169
sI39
I170
sI40
I352
sI41
I357
sI42
I53
sI43
I52
sI44
I96
sI45
I97
sI46
I49
sI47
I48
sI48
I118
sI49
I87
sI50
I224
sI51
I199
sI52
I370
sI53
I339
sI54
I228
sI55
I199
sI56
I252
sI57
I221
sI58
I106
sI59
I79
sI60
I504
sI61
I505
sI62
I110
sI63
I111
sI64
I382
sI65
I379
sI66
I43
sI67
I40
sI68
I122
sI69
I127
sI70
I43
sI71
I44
sI72
I350
sI73
I377
sI74
I25
sI75
I58
sI76
I122
sI77
I125
sI78
I57
sI79
I62
sI80
I208
sI81
I247
sI82
I212
sI83
I245
sI84
I496
sI85
I467
sI86
I244
sI87
I213
sI88
I224
sI89
I231
sI90
I228
sI91
I229
sI92
I480
sI93
I451
sI94
I228
sI95
I197
sI96
I382
sI97
I379
sI98
I59
sI99
I56
sI100
I122
sI101
I127
sI102
I59
sI103
I60
sI104
I326
sI105
I353
sI106
I1
sI107
I34
sI108
I98
sI109
I101
sI110
I33
sI111
I38
sI112
I208
sI113
I247
sI114
I196
sI115
I229
sI116
I496
sI117
I467
sI118
I228
sI119
I197
sI120
I248
sI121
I255
sI122
I236
sI123
I237
sI124
I504
sI125
I475
sI126
I236
sI127
I205
sI128
I185
sI129
I191
sI130
I188
sI131
I191
sI132
I441
sI133
I443
sI134
I184
sI135
I187
sI136
I57
sI137
I61
sI138
I108
sI139
I109
sI140
I313
sI141
I313
sI142
I104
sI143
I105
sI144
I46
sI145
I14
sI146
I248
sI147
I223
sI148
I298
sI149
I266
sI150
I252
sI151
I223
sI152
I172
sI153
I140
sI154
I122
sI155
I95
sI156
I424
sI157
I424
sI158
I126
sI159
I127
sI160
I185
sI161
I191
sI162
I172
sI163
I175
sI164
I441
sI165
I443
sI166
I168
sI167
I171
sI168
I33
sI169
I37
sI170
I116
sI171
I117
sI172
I289
sI173
I289
sI174
I112
sI175
I113
sI176
I62
sI177
I30
sI178
I232
sI179
I207
sI180
I314
sI181
I282
sI182
I236
sI183
I207
sI184
I180
sI185
I148
sI186
I98
sI187
I71
sI188
I432
sI189
I432
sI190
I102
sI191
I103
sI192
I63
sI193
I59
sI194
I42
sI195
I41
sI196
I315
sI197
I319
sI198
I42
sI199
I45
sI200
I31
sI201
I57
sI202
I88
sI203
I123
sI204
I315
sI205
I317
sI206
I120
sI207
I127
sI208
I152
sI209
I190
sI210
I220
sI211
I253
sI212
I440
sI213
I410
sI214
I252
sI215
I221
sI216
I168
sI217
I174
sI218
I236
sI219
I237
sI220
I424
sI221
I394
sI222
I236
sI223
I205
sI224
I63
sI225
I59
sI226
I58
sI227
I57
sI228
I315
sI229
I319
sI230
I58
sI231
I61
sI232
I7
sI233
I33
sI234
I64
sI235
I99
sI236
I291
sI237
I293
sI238
I96
sI239
I103
sI240
I152
sI241
I190
sI242
I204
sI243
I237
sI244
I440
sI245
I410
sI246
I236
sI247
I205
sI248
I176
sI249
I182
sI250
I228
sI251
I229
sI252
I432
sI253
I402
sI254
I228
sI255
I197
sI256
I177
sI257
I183
sI258
I500
sI259
I502
sI260
I433
sI261
I435
sI262
I240
sI263
I242
sI264
I121
sI265
I125
sI266
I492
sI267
I492
sI268
I377
sI269
I377
sI270
I232
sI271
I232
sI272
I102
sI273
I71
sI274
I304
sI275
I278
sI276
I98
sI277
I67
sI278
I52
sI279
I22
sI280
I228
sI281
I197
sI282
I306
sI283
I278
sI284
I224
sI285
I225
sI286
I54
sI287
I54
sI288
I185
sI289
I191
sI290
I492
sI291
I494
sI292
I441
sI293
I443
sI294
I232
sI295
I234
sI296
I105
sI297
I109
sI298
I508
sI299
I508
sI300
I361
sI301
I361
sI302
I248
sI303
I248
sI304
I118
sI305
I87
sI306
I288
sI307
I262
sI308
I114
sI309
I83
sI310
I36
sI311
I6
sI312
I252
sI313
I221
sI314
I298
sI315
I270
sI316
I248
sI317
I249
sI318
I46
sI319
I46
sI320
I183
sI321
I179
sI322
I354
sI323
I352
sI324
I435
sI325
I439
sI326
I98
sI327
I100
sI328
I95
sI329
I121
sI330
I472
sI331
I506
sI332
I379
sI333
I381
sI334
I248
sI335
I254
sI336
I208
sI337
I247
sI338
I276
sI339
I308
sI340
I240
sI341
I211
sI342
I52
sI343
I20
sI344
I224
sI345
I231
sI346
I420
sI347
I420
sI348
I224
sI349
I195
sI350
I164
sI351
I132
sI352
I191
sI353
I187
sI354
I378
sI355
I376
sI356
I443
sI357
I447
sI358
I122
sI359
I124
sI360
I79
sI361
I105
sI362
I456
sI363
I490
sI364
I363
sI365
I365
sI366
I232
sI367
I238
sI368
I208
sI369
I247
sI370
I260
sI371
I292
sI372
I240
sI373
I211
sI374
I36
sI375
I4
sI376
I248
sI377
I255
sI378
I428
sI379
I428
sI380
I248
sI381
I219
sI382
I172
sI383
I140
sI384
I433
sI385
I438
sI386
I244
sI387
I246
sI388
I177
sI389
I178
sI390
I496
sI391
I498
sI392
I377
sI393
I380
sI394
I236
sI395
I236
sI396
I121
sI397
I120
sI398
I488
sI399
I488
sI400
I366
sI401
I335
sI402
I120
sI403
I95
sI404
I106
sI405
I75
sI406
I124
sI407
I95
sI408
I492
sI409
I461
sI410
I58
sI411
I31
sI412
I232
sI413
I233
sI414
I62
sI415
I63
sI416
I441
sI417
I446
sI418
I236
sI419
I238
sI420
I185
sI421
I186
sI422
I488
sI423
I490
sI424
I353
sI425
I356
sI426
I244
sI427
I244
sI428
I97
sI429
I96
sI430
I496
sI431
I496
sI432
I374
sI433
I343
sI434
I96
sI435
I71
sI436
I114
sI437
I83
sI438
I100
sI439
I71
sI440
I500
sI441
I469
sI442
I34
sI443
I7
sI444
I240
sI445
I241
sI446
I38
sI447
I39
sI448
I439
sI449
I434
sI450
I98
sI451
I96
sI452
I179
sI453
I182
sI454
I354
sI455
I356
sI456
I351
sI457
I376
sI458
I216
sI459
I250
sI460
I123
sI461
I124
sI462
I504
sI463
I510
sI464
I472
sI465
I511
sI466
I92
sI467
I125
sI468
I248
sI469
I219
sI470
I124
sI471
I93
sI472
I488
sI473
I495
sI474
I172
sI475
I173
sI476
I232
sI477
I203
sI478
I172
sI479
I141
sI480
I447
sI481
I442
sI482
I122
sI483
I120
sI484
I187
sI485
I190
sI486
I378
sI487
I380
sI488
I327
sI489
I352
sI490
I192
sI491
I226
sI492
I99
sI493
I100
sI494
I480
sI495
I486
sI496
I464
sI497
I503
sI498
I68
sI499
I101
sI500
I240
sI501
I211
sI502
I100
sI503
I69
sI504
I496
sI505
I503
sI506
I164
sI507
I165
sI508
I240
sI509
I211
sI510
I164
sI511
I133
ssS'attractorDict'
p9
(dp10
I1
(lp11
I15
aI224
asI2
(lp12
I11
aI230
asI3
(lp13
I3
aI28
asI4
(lp14
I1
aI0
assS'K'
p15
I5
sS'ordinalNumber'
p16
I-1
sS'N'
p17
I9
sS'basinAmount'
p18
I4
sS'functionsList'
p19
(lp20
g0
(cNK_Network.BoolFunction
BoolFunction
p21
g2
Ntp22
Rp23
(dp24
S'valuesString'
p25
S'10000000011100000011110010000010'
p26
sg15
I5
sbag0
(g21
g2
Ntp27
Rp28
(dp29
g25
S'10000111110001111000110110110001'
p30
sg15
I5
sbag0
(g21
g2
Ntp31
Rp32
(dp33
g25
S'11001100010111110001111111110010'
p34
sg15
I5
sbag0
(g21
g2
Ntp35
Rp36
(dp37
g25
S'11101101111111111011101110101110'
p38
sg15
I5
sbag0
(g21
g2
Ntp39
Rp40
(dp41
g25
S'11001011111010111011010001101000'
p42
sg15
I5
sbag0
(g21
g2
Ntp43
Rp44
(dp45
g25
S'11110101110001100011010011100110'
p46
sg15
I5
sbag0
(g21
g2
Ntp47
Rp48
(dp49
g25
S'01110000110100111000010101110011'
p50
sg15
I5
sbag0
(g21
g2
Ntp51
Rp52
(dp53
g25
S'01111011010000010110001000011010'
p54
sg15
I5
sbag0
(g21
g2
Ntp55
Rp56
(dp57
g25
S'01101010000000001011100011011011'
p58
sg15
I5
sbasS'expectedReturnTime'
p59
F6.829875518672199
sS'stateList'
p60
(lp61
g0
(cNK_Network.State
State
p62
g2
Ntp63
Rp64
(dp65
S'firstAttractorStateNumber'
p66
I496
sS'weight'
p67
I0
sS'inBasin'
p68
I01
sS'basinNumber'
p69
I1
sS'inAttractor'
p70
I00
sS'stateNumber'
p71
I0
sS'dimension'
p72
I9
sbag0
(g62
g2
Ntp73
Rp74
(dp75
g66
I511
sg67
I0
sg68
I01
sg69
I2
sg70
I00
sg71
I1
sg72
I9
sbag0
(g62
g2
Ntp76
Rp77
(dp78
g66
I62
sg67
I0
sg68
I01
sg69
I2
sg70
I00
sg71
I2
sg72
I9
sbag0
(g62
g2
Ntp79
Rp80
(dp81
g66
I59
sg67
I0
sg68
I01
sg69
I2
sg70
I00
sg71
I3
sg72
I9
sbag0
(g62
g2
Ntp82
Rp83
(dp84
g66
I62
sg67
I0
sg68
I01
sg69
I2
sg70
I00
sg71
I4
sg72
I9
sbag0
(g62
g2
Ntp85
Rp86
(dp87
g66
I511
sg67
I0
sg68
I01
sg69
I2
sg70
I00
sg71
I5
sg72
I9
sbag0
(g62
g2
Ntp88
Rp89
(dp90
g66
I496
sg67
I0
sg68
I01
sg69
I1
sg70
I00
sg71
I6
sg72
I9
sbag0
(g62
g2
Ntp91
Rp92
(dp93
g66
Nsg67
I46
sg68
I00
sg69
I2
sg70
I01
sg71
I7
sg72
I9
sbag0
(g62
g2
Ntp94
Rp95
(dp96
g66
I62
sg67
I0
sg68
I01
sg69
I2
sg70
I00
sg71
I8
sg72
I9
sbag0
(g62
g2
Ntp97
Rp98
(dp99
g66
I443
sg67
I0
sg68
I01
sg69
I2
sg70
I00
sg71
I9
sg72
I9
sbag0
(g62
g2
Ntp100
Rp101
(dp102
g66
I97
sg67
I0
sg68
I01
sg69
I3
sg70
I00
sg71
I10
sg72
I9
sbag0
(g62
g2
Ntp103
Rp104
(dp105
g66
I496
sg67
I0
sg68
I01
sg69
I1
sg70
I00
sg71
I11
sg72
I9
sbag0
(g62
g2
Ntp106
Rp107
(dp108
g66
I62
sg67
I0
sg68
I01
sg69
I2
sg70
I00
sg71
I12
sg72
I9
sbag0
(g62
g2
Ntp109
Rp110
(dp111
g66
I511
sg67
I0
sg68
I01
sg69
I2
sg70
I00
sg71
I13
sg72
I9
sbag0
(g62
g2
Ntp112
Rp113
(dp114
g66
I447
sg67
I0
sg68
I01
sg69
I1
sg70
I00
sg71
I14
sg72
I9
sbag0
(g62
g2
Ntp115
Rp116
(dp117
g66
I496
sg67
I0
sg68
I01
sg69
I1
sg70
I00
sg71
I15
sg72
I9
sbag0
(g62
g2
Ntp118
Rp119
(dp120
g66
I59
sg67
I0
sg68
I01
sg69
I2
sg70
I00
sg71
I16
sg72
I9
sbag0
(g62
g2
Ntp121
Rp122
(dp123
g66
I496
sg67
I0
sg68
I01
sg69
I1
sg70
I00
sg71
I17
sg72
I9
sbag0
(g62
g2
Ntp124
Rp125
(dp126
g66
I496
sg67
I0
sg68
I01
sg69
I1
sg70
I00
sg71
I18
sg72
I9
sbag0
(g62
g2
Ntp127
Rp128
(dp129
g66
I236
sg67
I0
sg68
I01
sg69
I1
sg70
I00
sg71
I19
sg72
I9
sbag0
(g62
g2
Ntp130
Rp131
(dp132
g66
I428
sg67
I0
sg68
I01
sg69
I3
sg70
I00
sg71
I20
sg72
I9
sbag0
(g62
g2
Ntp133
Rp134
(dp135
g66
I496
sg67
I0
sg68
I01
sg69
I1
sg70
I00
sg71
I21
sg72
I9
sbag0
(g62
g2
Ntp136
Rp137
(dp138
g66
I496
sg67
I0
sg68
I01
sg69
I1
sg70
I00
sg71
I22
sg72
I9
sbag0
(g62
g2
Ntp139
Rp140
(dp141
g66
I236
sg67
I0
sg68
I01
sg69
I1
sg70
I00
sg71
I23
sg72
I9
sbag0
(g62
g2
Ntp142
Rp143
(dp144
g66
I7
sg67
I0
sg68
I01
sg69
I2
sg70
I00
sg71
I24
sg72
I9
sbag0
(g62
g2
Ntp145
Rp146
(dp147
g66
I511
sg67
I0
sg68
I01
sg69
I2
sg70
I00
sg71
I25
sg72
I9
sbag0
(g62
g2
Ntp148
Rp149
(dp150
g66
I7
sg67
I0
sg68
I01
sg69
I2
sg70
I00
sg71
I26
sg72
I9
sbag0
(g62
g2
Ntp151
Rp152
(dp153
g66
I511
sg67
I0
sg68
I01
sg69
I2
sg70
I00
sg71
I27
sg72
I9
sbag0
(g62
g2
Ntp154
Rp155
(dp156
g66
I480
sg67
I0
sg68
I01
sg69
I1
sg70
I00
sg71
I28
sg72
I9
sbag0
(g62
g2
Ntp157
Rp158
(dp159
g66
I496
sg67
I0
sg68
I01
sg69
I1
sg70
I00
sg71
I29
sg72
I9
sbag0
(g62
g2
Ntp160
Rp161
(dp162
g66
I7
sg67
I0
sg68
I01
sg69
I2
sg70
I00
sg71
I30
sg72
I9
sbag0
(g62
g2
Ntp163
Rp164
(dp165
g66
I511
sg67
I0
sg68
I01
sg69
I2
sg70
I00
sg71
I31
sg72
I9
sbag0
(g62
g2
Ntp166
Rp167
(dp168
g66
I496
sg67
I0
sg68
I01
sg69
I1
sg70
I00
sg71
I32
sg72
I9
sbag0
(g62
g2
Ntp169
Rp170
(dp171
g66
Nsg67
I6
sg68
I00
sg69
I2
sg70
I01
sg71
I33
sg72
I9
sbag0
(g62
g2
Ntp172
Rp173
(dp174
g66
I496
sg67
I0
sg68
I01
sg69
I1
sg70
I00
sg71
I34
sg72
I9
sbag0
(g62
g2
Ntp175
Rp176
(dp177
g66
I496
sg67
I0
sg68
I01
sg69
I1
sg70
I00
sg71
I35
sg72
I9
sbag0
(g62
g2
Ntp178
Rp179
(dp180
g66
I62
sg67
I0
sg68
I01
sg69
I2
sg70
I00
sg71
I36
sg72
I9
sbag0
(g62
g2
Ntp181
Rp182
(dp183
g66
I511
sg67
I0
sg68
I01
sg69
I2
sg70
I00
sg71
I37
sg72
I9
sbag0
(g62
g2
Ntp184
Rp185
(dp186
g66
I511
sg67
I0
sg68
I01
sg69
I2
sg70
I00
sg71
I38
sg72
I9
sbag0
(g62
g2
Ntp187
Rp188
(dp189
g66
Nsg67
I0
sg68
I00
sg69
I1
sg70
I01
sg71
I39
sg72
I9
sbag0
(g62
g2
Ntp190
Rp191
(dp192
g66
I496
sg67
I0
sg68
I01
sg69
I1
sg70
I00
sg71
I40
sg72
I9
sbag0
(g62
g2
Ntp193
Rp194
(dp195
g66
I447
sg67
I0
sg68
I01
sg69
I1
sg70
I00
sg71
I41
sg72
I9
sbag0
(g62
g2
Ntp196
Rp197
(dp198
g66
I7
sg67
I0
sg68
I01
sg69
I2
sg70
I00
sg71
I42
sg72
I9
sbag0
(g62
g2
Ntp199
Rp200
(dp201
g66
I428
sg67
I0
sg68
I01
sg69
I3
sg70
I00
sg71
I43
sg72
I9
sbag0
(g62
g2
Ntp202
Rp203
(dp204
g66
I496
sg67
I0
sg68
I01
sg69
I1
sg70
I00
sg71
I44
sg72
I9
sbag0
(g62
g2
Ntp205
Rp206
(dp207
g66
I97
sg67
I0
sg68
I01
sg69
I3
sg70
I00
sg71
I45
sg72
I9
sbag0
(g62
g2
Ntp208
Rp209
(dp210
g66
I511
sg67
I0
sg68
I01
sg69
I2
sg70
I00
sg71
I46
sg72
I9
sbag0
(g62
g2
Ntp211
Rp212
(dp213
g66
I7
sg67
I0
sg68
I01
sg69
I2
sg70
I00
sg71
I47
sg72
I9
sbag0
(g62
g2
Ntp214
Rp215
(dp216
g66
I7
sg67
I0
sg68
I01
sg69
I2
sg70
I00
sg71
I48
sg72
I9
sbag0
(g62
g2
Ntp217
Rp218
(dp219
g66
I511
sg67
I0
sg68
I01
sg69
I2
sg70
I00
sg71
I49
sg72
I9
sbag0
(g62
g2
Ntp220
Rp221
(dp222
g66
I511
sg67
I0
sg68
I01
sg69
I2
sg70
I00
sg71
I50
sg72
I9
sbag0
(g62
g2
Ntp223
Rp224
(dp225
g66
I97
sg67
I0
sg68
I01
sg69
I3
sg70
I00
sg71
I51
sg72
I9
sbag0
(g62
g2
Ntp226
Rp227
(dp228
g66
I428
sg67
I0
sg68
I01
sg69
I3
sg70
I00
sg71
I52
sg72
I9
sbag0
(g62
g2
Ntp229
Rp230
(dp231
g66
I7
sg67
I0
sg68
I01
sg69
I2
sg70
I00
sg71
I53
sg72
I9
sbag0
(g62
g2
Ntp232
Rp233
(dp234
g66
I7
sg67
I0
sg68
I01
sg69
I2
sg70
I00
sg71
I54
sg72
I9
sbag0
(g62
g2
Ntp235
Rp236
(dp237
g66
I97
sg67
I0
sg68
I01
sg69
I3
sg70
I00
sg71
I55
sg72
I9
sbag0
(g62
g2
Ntp238
Rp239
(dp240
g66
I62
sg67
I0
sg68
I01
sg69
I2
sg70
I00
sg71
I56
sg72
I9
sbag0
(g62
g2
Ntp241
Rp242
(dp243
g66
I236
sg67
I0
sg68
I01
sg69
I1
sg70
I00
sg71
I57
sg72
I9
sbag0
(g62
g2
Ntp244
Rp245
(dp246
g66
I511
sg67
I0
sg68
I01
sg69
I2
sg70
I00
sg71
I58
sg72
I9
sbag0
(g62
g2
Ntp247
Rp248
(dp249
g66
Nsg67
I12
sg68
I00
sg69
I2
sg70
I01
sg71
I59
sg72
I9
sbag0
(g62
g2
Ntp250
Rp251
(dp252
g66
I496
sg67
I0
sg68
I01
sg69
I1
sg70
I00
sg71
I60
sg72
I9
sbag0
(g62
g2
Ntp253
Rp254
(dp255
g66
I236
sg67
I0
sg68
I01
sg69
I1
sg70
I00
sg71
I61
sg72
I9
sbag0
(g62
g2
Ntp256
Rp257
(dp258
g66
Nsg67
I51
sg68
I00
sg69
I2
sg70
I01
sg71
I62
sg72
I9
sbag0
(g62
g2
Ntp259
Rp260
(dp261
g66
I511
sg67
I0
sg68
I01
sg69
I2
sg70
I00
sg71
I63
sg72
I9
sbag0
(g62
g2
Ntp262
Rp263
(dp264
g66
I496
sg67
I0
sg68
I01
sg69
I1
sg70
I00
sg71
I64
sg72
I9
sbag0
(g62
g2
Ntp265
Rp266
(dp267
g66
I379
sg67
I0
sg68
I01
sg69
I3
sg70
I00
sg71
I65
sg72
I9
sbag0
(g62
g2
Ntp268
Rp269
(dp270
g66
I428
sg67
I0
sg68
I01
sg69
I3
sg70
I00
sg71
I66
sg72
I9
sbag0
(g62
g2
Ntp271
Rp272
(dp273
g66
I496
sg67
I0
sg68
I01
sg69
I1
sg70
I00
sg71
I67
sg72
I9
sbag0
(g62
g2
Ntp274
Rp275
(dp276
g66
I122
sg67
I0
sg68
I01
sg69
I1
sg70
I00
sg71
I68
sg72
I9
sbag0
(g62
g2
Ntp277
Rp278
(dp279
g66
I236
sg67
I0
sg68
I01
sg69
I1
sg70
I00
sg71
I69
sg72
I9
sbag0
(g62
g2
Ntp280
Rp281
(dp282
g66
I428
sg67
I0
sg68
I01
sg69
I3
sg70
I00
sg71
I70
sg72
I9
sbag0
(g62
g2
Ntp283
Rp284
(dp285
g66
I496
sg67
I0
sg68
I01
sg69
I1
sg70
I00
sg71
I71
sg72
I9
sbag0
(g62
g2
Ntp286
Rp287
(dp288
g66
I443
sg67
I0
sg68
I01
sg69
I2
sg70
I00
sg71
I72
sg72
I9
sbag0
(g62
g2
Ntp289
Rp290
(dp291
g66
I511
sg67
I0
sg68
I01
sg69
I2
sg70
I00
sg71
I73
sg72
I9
sbag0
(g62
g2
Ntp292
Rp293
(dp294
g66
I511
sg67
I0
sg68
I01
sg69
I2
sg70
I00
sg71
I74
sg72
I9
sbag0
(g62
g2
Ntp295
Rp296
(dp297
g66
I511
sg67
I0
sg68
I01
sg69
I2
sg70
I00
sg71
I75
sg72
I9
sbag0
(g62
g2
Ntp298
Rp299
(dp300
g66
I122
sg67
I0
sg68
I01
sg69
I1
sg70
I00
sg71
I76
sg72
I9
sbag0
(g62
g2
Ntp301
Rp302
(dp303
g66
I496
sg67
I0
sg68
I01
sg69
I1
sg70
I00
sg71
I77
sg72
I9
sbag0
(g62
g2
Ntp304
Rp305
(dp306
g66
I236
sg67
I0
sg68
I01
sg69
I1
sg70
I00
sg71
I78
sg72
I9
sbag0
(g62
g2
Ntp307
Rp308
(dp309
g66
Nsg67
I1
sg68
I00
sg69
I2
sg70
I01
sg71
I79
sg72
I9
sbag0
(g62
g2
Ntp310
Rp311
(dp312
g66
I496
sg67
I0
sg68
I01
sg69
I1
sg70
I00
sg71
I80
sg72
I9
sbag0
(g62
g2
Ntp313
Rp314
(dp315
g66
I236
sg67
I0
sg68
I01
sg69
I1
sg70
I00
sg71
I81
sg72
I9
sbag0
(g62
g2
Ntp316
Rp317
(dp318
g66
I496
sg67
I0
sg68
I01
sg69
I1
sg70
I00
sg71
I82
sg72
I9
sbag0
(g62
g2
Ntp319
Rp320
(dp321
g66
I511
sg67
I0
sg68
I01
sg69
I2
sg70
I00
sg71
I83
sg72
I9
sbag0
(g62
g2
Ntp322
Rp323
(dp324
g66
I496
sg67
I0
sg68
I01
sg69
I1
sg70
I00
sg71
I84
sg72
I9
sbag0
(g62
g2
Ntp325
Rp326
(dp327
g66
I496
sg67
I0
sg68
I01
sg69
I1
sg70
I00
sg71
I85
sg72
I9
sbag0
(g62
g2
Ntp328
Rp329
(dp330
g66
I496
sg67
I0
sg68
I01
sg69
I1
sg70
I00
sg71
I86
sg72
I9
sbag0
(g62
g2
Ntp331
Rp332
(dp333
g66
I511
sg67
I0
sg68
I01
sg69
I2
sg70
I00
sg71
I87
sg72
I9
sbag0
(g62
g2
Ntp334
Rp335
(dp336
g66
I511
sg67
I0
sg68
I01
sg69
I2
sg70
I00
sg71
I88
sg72
I9
sbag0
(g62
g2
Ntp337
Rp338
(dp339
g66
I236
sg67
I0
sg68
I01
sg69
I1
sg70
I00
sg71
I89
sg72
I9
sbag0
(g62
g2
Ntp340
Rp341
(dp342
g66
I7
sg67
I0
sg68
I01
sg69
I2
sg70
I00
sg71
I90
sg72
I9
sbag0
(g62
g2
Ntp343
Rp344
(dp345
g66
I511
sg67
I0
sg68
I01
sg69
I2
sg70
I00
sg71
I91
sg72
I9
sbag0
(g62
g2
Ntp346
Rp347
(dp348
g66
I480
sg67
I0
sg68
I01
sg69
I1
sg70
I00
sg71
I92
sg72
I9
sbag0
(g62
g2
Ntp349
Rp350
(dp351
g66
I496
sg67
I0
sg68
I01
sg69
I1
sg70
I00
sg71
I93
sg72
I9
sbag0
(g62
g2
Ntp352
Rp353
(dp354
g66
I7
sg67
I0
sg68
I01
sg69
I2
sg70
I00
sg71
I94
sg72
I9
sbag0
(g62
g2
Ntp355
Rp356
(dp357
g66
I511
sg67
I0
sg68
I01
sg69
I2
sg70
I00
sg71
I95
sg72
I9
sbag0
(g62
g2
Ntp358
Rp359
(dp360
g66
I496
sg67
I0
sg68
I01
sg69
I1
sg70
I00
sg71
I96
sg72
I9
sbag0
(g62
g2
Ntp361
Rp362
(dp363
g66
Nsg67
I5
sg68
I00
sg69
I3
sg70
I01
sg71
I97
sg72
I9
sbag0
(g62
g2
Ntp364
Rp365
(dp366
g66
Nsg67
I8
sg68
I00
sg69
I2
sg70
I01
sg71
I98
sg72
I9
sbag0
(g62
g2
Ntp367
Rp368
(dp369
g66
I62
sg67
I0
sg68
I01
sg69
I2
sg70
I00
sg71
I99
sg72
I9
sbag0
(g62
g2
Ntp370
Rp371
(dp372
g66
Nsg67
I5
sg68
I00
sg69
I1
sg70
I01
sg71
I100
sg72
I9
sbag0
(g62
g2
Ntp373
Rp374
(dp375
g66
I236
sg67
I0
sg68
I01
sg69
I1
sg70
I00
sg71
I101
sg72
I9
sbag0
(g62
g2
Ntp376
Rp377
(dp378
g66
I59
sg67
I0
sg68
I01
sg69
I2
sg70
I00
sg71
I102
sg72
I9
sbag0
(g62
g2
Ntp379
Rp380
(dp381
g66
I496
sg67
I0
sg68
I01
sg69
I1
sg70
I00
sg71
I103
sg72
I9
sbag0
(g62
g2
Ntp382
Rp383
(dp384
g66
I98
sg67
I0
sg68
I01
sg69
I2
sg70
I00
sg71
I104
sg72
I9
sbag0
(g62
g2
Ntp385
Rp386
(dp387
g66
I496
sg67
I0
sg68
I01
sg69
I1
sg70
I00
sg71
I105
sg72
I9
sbag0
(g62
g2
Ntp388
Rp389
(dp390
g66
I511
sg67
I0
sg68
I01
sg69
I2
sg70
I00
sg71
I106
sg72
I9
sbag0
(g62
g2
Ntp391
Rp392
(dp393
g66
I496
sg67
I0
sg68
I01
sg69
I1
sg70
I00
sg71
I107
sg72
I9
sbag0
(g62
g2
Ntp394
Rp395
(dp396
g66
I98
sg67
I0
sg68
I01
sg69
I2
sg70
I00
sg71
I108
sg72
I9
sbag0
(g62
g2
Ntp397
Rp398
(dp399
g66
I236
sg67
I0
sg68
I01
sg69
I1
sg70
I00
sg71
I109
sg72
I9
sbag0
(g62
g2
Ntp400
Rp401
(dp402
g66
Nsg67
I0
sg68
I00
sg69
I2
sg70
I01
sg71
I110
sg72
I9
sbag0
(g62
g2
Ntp403
Rp404
(dp405
g66
I511
sg67
I0
sg68
I01
sg69
I2
sg70
I00
sg71
I111
sg72
I9
sbag0
(g62
g2
Ntp406
Rp407
(dp408
g66
I496
sg67
I0
sg68
I01
sg69
I1
sg70
I00
sg71
I112
sg72
I9
sbag0
(g62
g2
Ntp409
Rp410
(dp411
g66
I236
sg67
I0
sg68
I01
sg69
I1
sg70
I00
sg71
I113
sg72
I9
sbag0
(g62
g2
Ntp412
Rp413
(dp414
g66
I7
sg67
I0
sg68
I01
sg69
I2
sg70
I00
sg71
I114
sg72
I9
sbag0
(g62
g2
Ntp415
Rp416
(dp417
g66
I511
sg67
I0
sg68
I01
sg69
I2
sg70
I00
sg71
I115
sg72
I9
sbag0
(g62
g2
Ntp418
Rp419
(dp420
g66
Nsg67
I0
sg68
I00
sg69
I1
sg70
I01
sg71
I116
sg72
I9
sbag0
(g62
g2
Ntp421
Rp422
(dp423
g66
I496
sg67
I0
sg68
I01
sg69
I1
sg70
I00
sg71
I117
sg72
I9
sbag0
(g62
g2
Ntp424
Rp425
(dp426
g66
I7
sg67
I0
sg68
I01
sg69
I2
sg70
I00
sg71
I118
sg72
I9
sbag0
(g62
g2
Ntp427
Rp428
(dp429
g66
I511
sg67
I0
sg68
I01
sg69
I2
sg70
I00
sg71
I119
sg72
I9
sbag0
(g62
g2
Ntp430
Rp431
(dp432
g66
I62
sg67
I0
sg68
I01
sg69
I2
sg70
I00
sg71
I120
sg72
I9
sbag0
(g62
g2
Ntp433
Rp434
(dp435
g66
I511
sg67
I0
sg68
I01
sg69
I2
sg70
I00
sg71
I121
sg72
I9
sbag0
(g62
g2
Ntp436
Rp437
(dp438
g66
Nsg67
I7
sg68
I00
sg69
I1
sg70
I01
sg71
I122
sg72
I9
sbag0
(g62
g2
Ntp439
Rp440
(dp441
g66
I443
sg67
I0
sg68
I01
sg69
I2
sg70
I00
sg71
I123
sg72
I9
sbag0
(g62
g2
Ntp442
Rp443
(dp444
g66
I496
sg67
I0
sg68
I01
sg69
I1
sg70
I00
sg71
I124
sg72
I9
sbag0
(g62
g2
Ntp445
Rp446
(dp447
g66
I496
sg67
I0
sg68
I01
sg69
I1
sg70
I00
sg71
I125
sg72
I9
sbag0
(g62
g2
Ntp448
Rp449
(dp450
g66
I236
sg67
I0
sg68
I01
sg69
I1
sg70
I00
sg71
I126
sg72
I9
sbag0
(g62
g2
Ntp451
Rp452
(dp453
g66
I236
sg67
I0
sg68
I01
sg69
I1
sg70
I00
sg71
I127
sg72
I9
sbag0
(g62
g2
Ntp454
Rp455
(dp456
g66
I496
sg67
I0
sg68
I01
sg69
I1
sg70
I00
sg71
I128
sg72
I9
sbag0
(g62
g2
Ntp457
Rp458
(dp459
g66
I496
sg67
I0
sg68
I01
sg69
I1
sg70
I00
sg71
I129
sg72
I9
sbag0
(g62
g2
Ntp460
Rp461
(dp462
g66
I62
sg67
I0
sg68
I01
sg69
I2
sg70
I00
sg71
I130
sg72
I9
sbag0
(g62
g2
Ntp463
Rp464
(dp465
g66
I496
sg67
I0
sg68
I01
sg69
I1
sg70
I00
sg71
I131
sg72
I9
sbag0
(g62
g2
Ntp466
Rp467
(dp468
g66
I443
sg67
I0
sg68
I01
sg69
I2
sg70
I00
sg71
I132
sg72
I9
sbag0
(g62
g2
Ntp469
Rp470
(dp471
g66
Nsg67
I0
sg68
I00
sg69
I2
sg70
I01
sg71
I133
sg72
I9
sbag0
(g62
g2
Ntp472
Rp473
(dp474
g66
I496
sg67
I0
sg68
I01
sg69
I1
sg70
I00
sg71
I134
sg72
I9
sbag0
(g62
g2
Ntp475
Rp476
(dp477
g66
I496
sg67
I0
sg68
I01
sg69
I1
sg70
I00
sg71
I135
sg72
I9
sbag0
(g62
g2
Ntp478
Rp479
(dp480
g66
I236
sg67
I0
sg68
I01
sg69
I1
sg70
I00
sg71
I136
sg72
I9
sbag0
(g62
g2
Ntp481
Rp482
(dp483
g66
I236
sg67
I0
sg68
I01
sg69
I1
sg70
I00
sg71
I137
sg72
I9
sbag0
(g62
g2
Ntp484
Rp485
(dp486
g66
I98
sg67
I0
sg68
I01
sg69
I2
sg70
I00
sg71
I138
sg72
I9
sbag0
(g62
g2
Ntp487
Rp488
(dp489
g66
I236
sg67
I0
sg68
I01
sg69
I1
sg70
I00
sg71
I139
sg72
I9
sbag0
(g62
g2
Ntp490
Rp491
(dp492
g66
I236
sg67
I0
sg68
I01
sg69
I1
sg70
I00
sg71
I140
sg72
I9
sbag0
(g62
g2
Ntp493
Rp494
(dp495
g66
I236
sg67
I0
sg68
I01
sg69
I1
sg70
I00
sg71
I141
sg72
I9
sbag0
(g62
g2
Ntp496
Rp497
(dp498
g66
I98
sg67
I0
sg68
I01
sg69
I2
sg70
I00
sg71
I142
sg72
I9
sbag0
(g62
g2
Ntp499
Rp500
(dp501
g66
I496
sg67
I0
sg68
I01
sg69
I1
sg70
I00
sg71
I143
sg72
I9
sbag0
(g62
g2
Ntp502
Rp503
(dp504
g66
I511
sg67
I0
sg68
I01
sg69
I2
sg70
I00
sg71
I144
sg72
I9
sbag0
(g62
g2
Ntp505
Rp506
(dp507
g66
I447
sg67
I0
sg68
I01
sg69
I1
sg70
I00
sg71
I145
sg72
I9
sbag0
(g62
g2
Ntp508
Rp509
(dp510
g66
I62
sg67
I0
sg68
I01
sg69
I2
sg70
I00
sg71
I146
sg72
I9
sbag0
(g62
g2
Ntp511
Rp512
(dp513
g66
I236
sg67
I0
sg68
I01
sg69
I1
sg70
I00
sg71
I147
sg72
I9
sbag0
(g62
g2
Ntp514
Rp515
(dp516
g66
I496
sg67
I0
sg68
I01
sg69
I1
sg70
I00
sg71
I148
sg72
I9
sbag0
(g62
g2
Ntp517
Rp518
(dp519
g66
I62
sg67
I0
sg68
I01
sg69
I2
sg70
I00
sg71
I149
sg72
I9
sbag0
(g62
g2
Ntp520
Rp521
(dp522
g66
I62
sg67
I0
sg68
I01
sg69
I2
sg70
I00
sg71
I150
sg72
I9
sbag0
(g62
g2
Ntp523
Rp524
(dp525
g66
I236
sg67
I0
sg68
I01
sg69
I1
sg70
I00
sg71
I151
sg72
I9
sbag0
(g62
g2
Ntp526
Rp527
(dp528
g66
I496
sg67
I0
sg68
I01
sg69
I1
sg70
I00
sg71
I152
sg72
I9
sbag0
(g62
g2
Ntp529
Rp530
(dp531
g66
I236
sg67
I0
sg68
I01
sg69
I1
sg70
I00
sg71
I153
sg72
I9
sbag0
(g62
g2
Ntp532
Rp533
(dp534
g66
I122
sg67
I0
sg68
I01
sg69
I1
sg70
I00
sg71
I154
sg72
I9
sbag0
(g62
g2
Ntp535
Rp536
(dp537
g66
I511
sg67
I0
sg68
I01
sg69
I2
sg70
I00
sg71
I155
sg72
I9
sbag0
(g62
g2
Ntp538
Rp539
(dp540
g66
I496
sg67
I0
sg68
I01
sg69
I1
sg70
I00
sg71
I156
sg72
I9
sbag0
(g62
g2
Ntp541
Rp542
(dp543
g66
I496
sg67
I0
sg68
I01
sg69
I1
sg70
I00
sg71
I157
sg72
I9
sbag0
(g62
g2
Ntp544
Rp545
(dp546
g66
I236
sg67
I0
sg68
I01
sg69
I1
sg70
I00
sg71
I158
sg72
I9
sbag0
(g62
g2
Ntp547
Rp548
(dp549
g66
I236
sg67
I0
sg68
I01
sg69
I1
sg70
I00
sg71
I159
sg72
I9
sbag0
(g62
g2
Ntp550
Rp551
(dp552
g66
I496
sg67
I0
sg68
I01
sg69
I1
sg70
I00
sg71
I160
sg72
I9
sbag0
(g62
g2
Ntp553
Rp554
(dp555
g66
I496
sg67
I0
sg68
I01
sg69
I1
sg70
I00
sg71
I161
sg72
I9
sbag0
(g62
g2
Ntp556
Rp557
(dp558
g66
I496
sg67
I0
sg68
I01
sg69
I1
sg70
I00
sg71
I162
sg72
I9
sbag0
(g62
g2
Ntp559
Rp560
(dp561
g66
I236
sg67
I0
sg68
I01
sg69
I1
sg70
I00
sg71
I163
sg72
I9
sbag0
(g62
g2
Ntp562
Rp563
(dp564
g66
I443
sg67
I0
sg68
I01
sg69
I2
sg70
I00
sg71
I164
sg72
I9
sbag0
(g62
g2
Ntp565
Rp566
(dp567
g66
I443
sg67
I0
sg68
I01
sg69
I2
sg70
I00
sg71
I165
sg72
I9
sbag0
(g62
g2
Ntp568
Rp569
(dp570
g66
I33
sg67
I0
sg68
I01
sg69
I2
sg70
I00
sg71
I166
sg72
I9
sbag0
(g62
g2
Ntp571
Rp572
(dp573
g66
I496
sg67
I0
sg68
I01
sg69
I1
sg70
I00
sg71
I167
sg72
I9
sbag0
(g62
g2
Ntp574
Rp575
(dp576
g66
I33
sg67
I0
sg68
I01
sg69
I2
sg70
I00
sg71
I168
sg72
I9
sbag0
(g62
g2
Ntp577
Rp578
(dp579
g66
I511
sg67
I0
sg68
I01
sg69
I2
sg70
I00
sg71
I169
sg72
I9
sbag0
(g62
g2
Ntp580
Rp581
(dp582
g66
Nsg67
I0
sg68
I00
sg69
I1
sg70
I01
sg71
I170
sg72
I9
sbag0
(g62
g2
Ntp583
Rp584
(dp585
g66
I496
sg67
I0
sg68
I01
sg69
I1
sg70
I00
sg71
I171
sg72
I9
sbag0
(g62
g2
Ntp586
Rp587
(dp588
g66
I496
sg67
I0
sg68
I01
sg69
I1
sg70
I00
sg71
I172
sg72
I9
sbag0
(g62
g2
Ntp589
Rp590
(dp591
g66
I496
sg67
I0
sg68
I01
sg69
I1
sg70
I00
sg71
I173
sg72
I9
sbag0
(g62
g2
Ntp592
Rp593
(dp594
g66
I496
sg67
I0
sg68
I01
sg69
I1
sg70
I00
sg71
I174
sg72
I9
sbag0
(g62
g2
Ntp595
Rp596
(dp597
g66
I236
sg67
I0
sg68
I01
sg69
I1
sg70
I00
sg71
I175
sg72
I9
sbag0
(g62
g2
Ntp598
Rp599
(dp600
g66
I62
sg67
I0
sg68
I01
sg69
I2
sg70
I00
sg71
I176
sg72
I9
sbag0
(g62
g2
Ntp601
Rp602
(dp603
g66
I7
sg67
I0
sg68
I01
sg69
I2
sg70
I00
sg71
I177
sg72
I9
sbag0
(g62
g2
Ntp604
Rp605
(dp606
g66
I7
sg67
I0
sg68
I01
sg69
I2
sg70
I00
sg71
I178
sg72
I9
sbag0
(g62
g2
Ntp607
Rp608
(dp609
g66
I236
sg67
I0
sg68
I01
sg69
I1
sg70
I00
sg71
I179
sg72
I9
sbag0
(g62
g2
Ntp610
Rp611
(dp612
g66
I496
sg67
I0
sg68
I01
sg69
I1
sg70
I00
sg71
I180
sg72
I9
sbag0
(g62
g2
Ntp613
Rp614
(dp615
g66
I496
sg67
I0
sg68
I01
sg69
I1
sg70
I00
sg71
I181
sg72
I9
sbag0
(g62
g2
Ntp616
Rp617
(dp618
g66
I236
sg67
I0
sg68
I01
sg69
I1
sg70
I00
sg71
I182
sg72
I9
sbag0
(g62
g2
Ntp619
Rp620
(dp621
g66
I236
sg67
I0
sg68
I01
sg69
I1
sg70
I00
sg71
I183
sg72
I9
sbag0
(g62
g2
Ntp622
Rp623
(dp624
g66
I496
sg67
I0
sg68
I01
sg69
I1
sg70
I00
sg71
I184
sg72
I9
sbag0
(g62
g2
Ntp625
Rp626
(dp627
g66
I496
sg67
I0
sg68
I01
sg69
I1
sg70
I00
sg71
I185
sg72
I9
sbag0
(g62
g2
Ntp628
Rp629
(dp630
g66
Nsg67
I1
sg68
I00
sg69
I2
sg70
I01
sg71
I186
sg72
I9
sbag0
(g62
g2
Ntp631
Rp632
(dp633
g66
I496
sg67
I0
sg68
I01
sg69
I1
sg70
I00
sg71
I187
sg72
I9
sbag0
(g62
g2
Ntp634
Rp635
(dp636
g66
I62
sg67
I0
sg68
I01
sg69
I2
sg70
I00
sg71
I188
sg72
I9
sbag0
(g62
g2
Ntp637
Rp638
(dp639
g66
I62
sg67
I0
sg68
I01
sg69
I2
sg70
I00
sg71
I189
sg72
I9
sbag0
(g62
g2
Ntp640
Rp641
(dp642
g66
I59
sg67
I0
sg68
I01
sg69
I2
sg70
I00
sg71
I190
sg72
I9
sbag0
(g62
g2
Ntp643
Rp644
(dp645
g66
I496
sg67
I0
sg68
I01
sg69
I1
sg70
I00
sg71
I191
sg72
I9
sbag0
(g62
g2
Ntp646
Rp647
(dp648
g66
I511
sg67
I0
sg68
I01
sg69
I2
sg70
I00
sg71
I192
sg72
I9
sbag0
(g62
g2
Ntp649
Rp650
(dp651
g66
I59
sg67
I0
sg68
I01
sg69
I2
sg70
I00
sg71
I193
sg72
I9
sbag0
(g62
g2
Ntp652
Rp653
(dp654
g66
I7
sg67
I0
sg68
I01
sg69
I2
sg70
I00
sg71
I194
sg72
I9
sbag0
(g62
g2
Ntp655
Rp656
(dp657
g66
I447
sg67
I0
sg68
I01
sg69
I1
sg70
I00
sg71
I195
sg72
I9
sbag0
(g62
g2
Ntp658
Rp659
(dp660
g66
I7
sg67
I0
sg68
I01
sg69
I2
sg70
I00
sg71
I196
sg72
I9
sbag0
(g62
g2
Ntp661
Rp662
(dp663
g66
I511
sg67
I0
sg68
I01
sg69
I2
sg70
I00
sg71
I197
sg72
I9
sbag0
(g62
g2
Ntp664
Rp665
(dp666
g66
I7
sg67
I0
sg68
I01
sg69
I2
sg70
I00
sg71
I198
sg72
I9
sbag0
(g62
g2
Ntp667
Rp668
(dp669
g66
I97
sg67
I0
sg68
I01
sg69
I3
sg70
I00
sg71
I199
sg72
I9
sbag0
(g62
g2
Ntp670
Rp671
(dp672
g66
I511
sg67
I0
sg68
I01
sg69
I2
sg70
I00
sg71
I200
sg72
I9
sbag0
(g62
g2
Ntp673
Rp674
(dp675
g66
I236
sg67
I0
sg68
I01
sg69
I1
sg70
I00
sg71
I201
sg72
I9
sbag0
(g62
g2
Ntp676
Rp677
(dp678
g66
I511
sg67
I0
sg68
I01
sg69
I2
sg70
I00
sg71
I202
sg72
I9
sbag0
(g62
g2
Ntp679
Rp680
(dp681
g66
I443
sg67
I0
sg68
I01
sg69
I2
sg70
I00
sg71
I203
sg72
I9
sbag0
(g62
g2
Ntp682
Rp683
(dp684
g66
I7
sg67
I0
sg68
I01
sg69
I2
sg70
I00
sg71
I204
sg72
I9
sbag0
(g62
g2
Ntp685
Rp686
(dp687
g66
I236
sg67
I0
sg68
I01
sg69
I1
sg70
I00
sg71
I205
sg72
I9
sbag0
(g62
g2
Ntp688
Rp689
(dp690
g66
I62
sg67
I0
sg68
I01
sg69
I2
sg70
I00
sg71
I206
sg72
I9
sbag0
(g62
g2
Ntp691
Rp692
(dp693
g66
I236
sg67
I0
sg68
I01
sg69
I1
sg70
I00
sg71
I207
sg72
I9
sbag0
(g62
g2
Ntp694
Rp695
(dp696
g66
I496
sg67
I0
sg68
I01
sg69
I1
sg70
I00
sg71
I208
sg72
I9
sbag0
(g62
g2
Ntp697
Rp698
(dp699
g66
I59
sg67
I0
sg68
I01
sg69
I2
sg70
I00
sg71
I209
sg72
I9
sbag0
(g62
g2
Ntp700
Rp701
(dp702
g66
I496
sg67
I0
sg68
I01
sg69
I1
sg70
I00
sg71
I210
sg72
I9
sbag0
(g62
g2
Ntp703
Rp704
(dp705
g66
I62
sg67
I0
sg68
I01
sg69
I2
sg70
I00
sg71
I211
sg72
I9
sbag0
(g62
g2
Ntp706
Rp707
(dp708
g66
I496
sg67
I0
sg68
I01
sg69
I1
sg70
I00
sg71
I212
sg72
I9
sbag0
(g62
g2
Ntp709
Rp710
(dp711
g66
I511
sg67
I0
sg68
I01
sg69
I2
sg70
I00
sg71
I213
sg72
I9
sbag0
(g62
g2
Ntp712
Rp713
(dp714
g66
I62
sg67
I0
sg68
I01
sg69
I2
sg70
I00
sg71
I214
sg72
I9
sbag0
(g62
g2
Ntp715
Rp716
(dp717
g66
I236
sg67
I0
sg68
I01
sg69
I1
sg70
I00
sg71
I215
sg72
I9
sbag0
(g62
g2
Ntp718
Rp719
(dp720
g66
I33
sg67
I0
sg68
I01
sg69
I2
sg70
I00
sg71
I216
sg72
I9
sbag0
(g62
g2
Ntp721
Rp722
(dp723
g66
I496
sg67
I0
sg68
I01
sg69
I1
sg70
I00
sg71
I217
sg72
I9
sbag0
(g62
g2
Ntp724
Rp725
(dp726
g66
I236
sg67
I0
sg68
I01
sg69
I1
sg70
I00
sg71
I218
sg72
I9
sbag0
(g62
g2
Ntp727
Rp728
(dp729
g66
I443
sg67
I0
sg68
I01
sg69
I2
sg70
I00
sg71
I219
sg72
I9
sbag0
(g62
g2
Ntp730
Rp731
(dp732
g66
I496
sg67
I0
sg68
I01
sg69
I1
sg70
I00
sg71
I220
sg72
I9
sbag0
(g62
g2
Ntp733
Rp734
(dp735
g66
I236
sg67
I0
sg68
I01
sg69
I1
sg70
I00
sg71
I221
sg72
I9
sbag0
(g62
g2
Ntp736
Rp737
(dp738
g66
I236
sg67
I0
sg68
I01
sg69
I1
sg70
I00
sg71
I222
sg72
I9
sbag0
(g62
g2
Ntp739
Rp740
(dp741
g66
I236
sg67
I0
sg68
I01
sg69
I1
sg70
I00
sg71
I223
sg72
I9
sbag0
(g62
g2
Ntp742
Rp743
(dp744
g66
I511
sg67
I0
sg68
I01
sg69
I2
sg70
I00
sg71
I224
sg72
I9
sbag0
(g62
g2
Ntp745
Rp746
(dp747
g66
I59
sg67
I0
sg68
I01
sg69
I2
sg70
I00
sg71
I225
sg72
I9
sbag0
(g62
g2
Ntp748
Rp749
(dp750
g66
I511
sg67
I0
sg68
I01
sg69
I2
sg70
I00
sg71
I226
sg72
I9
sbag0
(g62
g2
Ntp751
Rp752
(dp753
g66
I236
sg67
I0
sg68
I01
sg69
I1
sg70
I00
sg71
I227
sg72
I9
sbag0
(g62
g2
Ntp754
Rp755
(dp756
g66
I7
sg67
I0
sg68
I01
sg69
I2
sg70
I00
sg71
I228
sg72
I9
sbag0
(g62
g2
Ntp757
Rp758
(dp759
g66
I511
sg67
I0
sg68
I01
sg69
I2
sg70
I00
sg71
I229
sg72
I9
sbag0
(g62
g2
Ntp760
Rp761
(dp762
g66
I511
sg67
I0
sg68
I01
sg69
I2
sg70
I00
sg71
I230
sg72
I9
sbag0
(g62
g2
Ntp763
Rp764
(dp765
g66
I236
sg67
I0
sg68
I01
sg69
I1
sg70
I00
sg71
I231
sg72
I9
sbag0
(g62
g2
Ntp766
Rp767
(dp768
g66
I7
sg67
I0
sg68
I01
sg69
I2
sg70
I00
sg71
I232
sg72
I9
sbag0
(g62
g2
Ntp769
Rp770
(dp771
g66
I33
sg67
I0
sg68
I01
sg69
I2
sg70
I00
sg71
I233
sg72
I9
sbag0
(g62
g2
Ntp772
Rp773
(dp774
g66
I496
sg67
I0
sg68
I01
sg69
I1
sg70
I00
sg71
I234
sg72
I9
sbag0
(g62
g2
Ntp775
Rp776
(dp777
g66
I62
sg67
I0
sg68
I01
sg69
I2
sg70
I00
sg71
I235
sg72
I9
sbag0
(g62
g2
Ntp778
Rp779
(dp780
g66
Nsg67
I62
sg68
I00
sg69
I1
sg70
I01
sg71
I236
sg72
I9
sbag0
(g62
g2
Ntp781
Rp782
(dp783
g66
I443
sg67
I0
sg68
I01
sg69
I2
sg70
I00
sg71
I237
sg72
I9
sbag0
(g62
g2
Ntp784
Rp785
(dp786
g66
I496
sg67
I0
sg68
I01
sg69
I1
sg70
I00
sg71
I238
sg72
I9
sbag0
(g62
g2
Ntp787
Rp788
(dp789
g66
I496
sg67
I0
sg68
I01
sg69
I1
sg70
I00
sg71
I239
sg72
I9
sbag0
(g62
g2
Ntp790
Rp791
(dp792
g66
I496
sg67
I0
sg68
I01
sg69
I1
sg70
I00
sg71
I240
sg72
I9
sbag0
(g62
g2
Ntp793
Rp794
(dp795
g66
I59
sg67
I0
sg68
I01
sg69
I2
sg70
I00
sg71
I241
sg72
I9
sbag0
(g62
g2
Ntp796
Rp797
(dp798
g66
I7
sg67
I0
sg68
I01
sg69
I2
sg70
I00
sg71
I242
sg72
I9
sbag0
(g62
g2
Ntp799
Rp800
(dp801
g66
I443
sg67
I0
sg68
I01
sg69
I2
sg70
I00
sg71
I243
sg72
I9
sbag0
(g62
g2
Ntp802
Rp803
(dp804
g66
I496
sg67
I0
sg68
I01
sg69
I1
sg70
I00
sg71
I244
sg72
I9
sbag0
(g62
g2
Ntp805
Rp806
(dp807
g66
I511
sg67
I0
sg68
I01
sg69
I2
sg70
I00
sg71
I245
sg72
I9
sbag0
(g62
g2
Ntp808
Rp809
(dp810
g66
I236
sg67
I0
sg68
I01
sg69
I1
sg70
I00
sg71
I246
sg72
I9
sbag0
(g62
g2
Ntp811
Rp812
(dp813
g66
I236
sg67
I0
sg68
I01
sg69
I1
sg70
I00
sg71
I247
sg72
I9
sbag0
(g62
g2
Ntp814
Rp815
(dp816
g66
I62
sg67
I0
sg68
I01
sg69
I2
sg70
I00
sg71
I248
sg72
I9
sbag0
(g62
g2
Ntp817
Rp818
(dp819
g66
I236
sg67
I0
sg68
I01
sg69
I1
sg70
I00
sg71
I249
sg72
I9
sbag0
(g62
g2
Ntp820
Rp821
(dp822
g66
I7
sg67
I0
sg68
I01
sg69
I2
sg70
I00
sg71
I250
sg72
I9
sbag0
(g62
g2
Ntp823
Rp824
(dp825
g66
I511
sg67
I0
sg68
I01
sg69
I2
sg70
I00
sg71
I251
sg72
I9
sbag0
(g62
g2
Ntp826
Rp827
(dp828
g66
I62
sg67
I0
sg68
I01
sg69
I2
sg70
I00
sg71
I252
sg72
I9
sbag0
(g62
g2
Ntp829
Rp830
(dp831
g66
I62
sg67
I0
sg68
I01
sg69
I2
sg70
I00
sg71
I253
sg72
I9
sbag0
(g62
g2
Ntp832
Rp833
(dp834
g66
I7
sg67
I0
sg68
I01
sg69
I2
sg70
I00
sg71
I254
sg72
I9
sbag0
(g62
g2
Ntp835
Rp836
(dp837
g66
I511
sg67
I0
sg68
I01
sg69
I2
sg70
I00
sg71
I255
sg72
I9
sbag0
(g62
g2
Ntp838
Rp839
(dp840
g66
I7
sg67
I0
sg68
I01
sg69
I2
sg70
I00
sg71
I256
sg72
I9
sbag0
(g62
g2
Ntp841
Rp842
(dp843
g66
I236
sg67
I0
sg68
I01
sg69
I1
sg70
I00
sg71
I257
sg72
I9
sbag0
(g62
g2
Ntp844
Rp845
(dp846
g66
I496
sg67
I0
sg68
I01
sg69
I1
sg70
I00
sg71
I258
sg72
I9
sbag0
(g62
g2
Ntp847
Rp848
(dp849
g66
I100
sg67
I0
sg68
I01
sg69
I1
sg70
I00
sg71
I259
sg72
I9
sbag0
(g62
g2
Ntp850
Rp851
(dp852
g66
I428
sg67
I0
sg68
I01
sg69
I3
sg70
I00
sg71
I260
sg72
I9
sbag0
(g62
g2
Ntp853
Rp854
(dp855
g66
I496
sg67
I0
sg68
I01
sg69
I1
sg70
I00
sg71
I261
sg72
I9
sbag0
(g62
g2
Ntp856
Rp857
(dp858
g66
I496
sg67
I0
sg68
I01
sg69
I1
sg70
I00
sg71
I262
sg72
I9
sbag0
(g62
g2
Ntp859
Rp860
(dp861
g66
I7
sg67
I0
sg68
I01
sg69
I2
sg70
I00
sg71
I263
sg72
I9
sbag0
(g62
g2
Ntp862
Rp863
(dp864
g66
I511
sg67
I0
sg68
I01
sg69
I2
sg70
I00
sg71
I264
sg72
I9
sbag0
(g62
g2
Ntp865
Rp866
(dp867
g66
I496
sg67
I0
sg68
I01
sg69
I1
sg70
I00
sg71
I265
sg72
I9
sbag0
(g62
g2
Ntp868
Rp869
(dp870
g66
I62
sg67
I0
sg68
I01
sg69
I2
sg70
I00
sg71
I266
sg72
I9
sbag0
(g62
g2
Ntp871
Rp872
(dp873
g66
I62
sg67
I0
sg68
I01
sg69
I2
sg70
I00
sg71
I267
sg72
I9
sbag0
(g62
g2
Ntp874
Rp875
(dp876
g66
I511
sg67
I0
sg68
I01
sg69
I2
sg70
I00
sg71
I268
sg72
I9
sbag0
(g62
g2
Ntp877
Rp878
(dp879
g66
I511
sg67
I0
sg68
I01
sg69
I2
sg70
I00
sg71
I269
sg72
I9
sbag0
(g62
g2
Ntp880
Rp881
(dp882
g66
I7
sg67
I0
sg68
I01
sg69
I2
sg70
I00
sg71
I270
sg72
I9
sbag0
(g62
g2
Ntp883
Rp884
(dp885
g66
I7
sg67
I0
sg68
I01
sg69
I2
sg70
I00
sg71
I271
sg72
I9
sbag0
(g62
g2
Ntp886
Rp887
(dp888
g66
I59
sg67
I0
sg68
I01
sg69
I2
sg70
I00
sg71
I272
sg72
I9
sbag0
(g62
g2
Ntp889
Rp890
(dp891
g66
I496
sg67
I0
sg68
I01
sg69
I1
sg70
I00
sg71
I273
sg72
I9
sbag0
(g62
g2
Ntp892
Rp893
(dp894
g66
I7
sg67
I0
sg68
I01
sg69
I2
sg70
I00
sg71
I274
sg72
I9
sbag0
(g62
g2
Ntp895
Rp896
(dp897
g66
I428
sg67
I0
sg68
I01
sg69
I3
sg70
I00
sg71
I275
sg72
I9
sbag0
(g62
g2
Ntp898
Rp899
(dp900
g66
I98
sg67
I0
sg68
I01
sg69
I2
sg70
I00
sg71
I276
sg72
I9
sbag0
(g62
g2
Ntp901
Rp902
(dp903
g66
I496
sg67
I0
sg68
I01
sg69
I1
sg70
I00
sg71
I277
sg72
I9
sbag0
(g62
g2
Ntp904
Rp905
(dp906
g66
I428
sg67
I0
sg68
I01
sg69
I3
sg70
I00
sg71
I278
sg72
I9
sbag0
(g62
g2
Ntp907
Rp908
(dp909
g66
I496
sg67
I0
sg68
I01
sg69
I1
sg70
I00
sg71
I279
sg72
I9
sbag0
(g62
g2
Ntp910
Rp911
(dp912
g66
I7
sg67
I0
sg68
I01
sg69
I2
sg70
I00
sg71
I280
sg72
I9
sbag0
(g62
g2
Ntp913
Rp914
(dp915
g66
I511
sg67
I0
sg68
I01
sg69
I2
sg70
I00
sg71
I281
sg72
I9
sbag0
(g62
g2
Ntp916
Rp917
(dp918
g66
I496
sg67
I0
sg68
I01
sg69
I1
sg70
I00
sg71
I282
sg72
I9
sbag0
(g62
g2
Ntp919
Rp920
(dp921
g66
I428
sg67
I0
sg68
I01
sg69
I3
sg70
I00
sg71
I283
sg72
I9
sbag0
(g62
g2
Ntp922
Rp923
(dp924
g66
I511
sg67
I0
sg68
I01
sg69
I2
sg70
I00
sg71
I284
sg72
I9
sbag0
(g62
g2
Ntp925
Rp926
(dp927
g66
I59
sg67
I0
sg68
I01
sg69
I2
sg70
I00
sg71
I285
sg72
I9
sbag0
(g62
g2
Ntp928
Rp929
(dp930
g66
I7
sg67
I0
sg68
I01
sg69
I2
sg70
I00
sg71
I286
sg72
I9
sbag0
(g62
g2
Ntp931
Rp932
(dp933
g66
I7
sg67
I0
sg68
I01
sg69
I2
sg70
I00
sg71
I287
sg72
I9
sbag0
(g62
g2
Ntp934
Rp935
(dp936
g66
I496
sg67
I0
sg68
I01
sg69
I1
sg70
I00
sg71
I288
sg72
I9
sbag0
(g62
g2
Ntp937
Rp938
(dp939
g66
I496
sg67
I0
sg68
I01
sg69
I1
sg70
I00
sg71
I289
sg72
I9
sbag0
(g62
g2
Ntp940
Rp941
(dp942
g66
I62
sg67
I0
sg68
I01
sg69
I2
sg70
I00
sg71
I290
sg72
I9
sbag0
(g62
g2
Ntp943
Rp944
(dp945
g66
Nsg67
I0
sg68
I00
sg69
I1
sg70
I01
sg71
I291
sg72
I9
sbag0
(g62
g2
Ntp946
Rp947
(dp948
g66
I443
sg67
I0
sg68
I01
sg69
I2
sg70
I00
sg71
I292
sg72
I9
sbag0
(g62
g2
Ntp949
Rp950
(dp951
g66
I443
sg67
I0
sg68
I01
sg69
I2
sg70
I00
sg71
I293
sg72
I9
sbag0
(g62
g2
Ntp952
Rp953
(dp954
g66
I7
sg67
I0
sg68
I01
sg69
I2
sg70
I00
sg71
I294
sg72
I9
sbag0
(g62
g2
Ntp955
Rp956
(dp957
g66
I496
sg67
I0
sg68
I01
sg69
I1
sg70
I00
sg71
I295
sg72
I9
sbag0
(g62
g2
Ntp958
Rp959
(dp960
g66
I496
sg67
I0
sg68
I01
sg69
I1
sg70
I00
sg71
I296
sg72
I9
sbag0
(g62
g2
Ntp961
Rp962
(dp963
g66
I236
sg67
I0
sg68
I01
sg69
I1
sg70
I00
sg71
I297
sg72
I9
sbag0
(g62
g2
Ntp964
Rp965
(dp966
g66
I496
sg67
I0
sg68
I01
sg69
I1
sg70
I00
sg71
I298
sg72
I9
sbag0
(g62
g2
Ntp967
Rp968
(dp969
g66
I496
sg67
I0
sg68
I01
sg69
I1
sg70
I00
sg71
I299
sg72
I9
sbag0
(g62
g2
Ntp970
Rp971
(dp972
g66
I496
sg67
I0
sg68
I01
sg69
I1
sg70
I00
sg71
I300
sg72
I9
sbag0
(g62
g2
Ntp973
Rp974
(dp975
g66
I496
sg67
I0
sg68
I01
sg69
I1
sg70
I00
sg71
I301
sg72
I9
sbag0
(g62
g2
Ntp976
Rp977
(dp978
g66
I62
sg67
I0
sg68
I01
sg69
I2
sg70
I00
sg71
I302
sg72
I9
sbag0
(g62
g2
Ntp979
Rp980
(dp981
g66
I62
sg67
I0
sg68
I01
sg69
I2
sg70
I00
sg71
I303
sg72
I9
sbag0
(g62
g2
Ntp982
Rp983
(dp984
g66
I7
sg67
I0
sg68
I01
sg69
I2
sg70
I00
sg71
I304
sg72
I9
sbag0
(g62
g2
Ntp985
Rp986
(dp987
g66
I511
sg67
I0
sg68
I01
sg69
I2
sg70
I00
sg71
I305
sg72
I9
sbag0
(g62
g2
Ntp988
Rp989
(dp990
g66
I496
sg67
I0
sg68
I01
sg69
I1
sg70
I00
sg71
I306
sg72
I9
sbag0
(g62
g2
Ntp991
Rp992
(dp993
g66
I496
sg67
I0
sg68
I01
sg69
I1
sg70
I00
sg71
I307
sg72
I9
sbag0
(g62
g2
Ntp994
Rp995
(dp996
g66
I7
sg67
I0
sg68
I01
sg69
I2
sg70
I00
sg71
I308
sg72
I9
sbag0
(g62
g2
Ntp997
Rp998
(dp999
g66
I511
sg67
I0
sg68
I01
sg69
I2
sg70
I00
sg71
I309
sg72
I9
sbag0
(g62
g2
Ntp1000
Rp1001
(dp1002
g66
I62
sg67
I0
sg68
I01
sg69
I2
sg70
I00
sg71
I310
sg72
I9
sbag0
(g62
g2
Ntp1003
Rp1004
(dp1005
g66
I496
sg67
I0
sg68
I01
sg69
I1
sg70
I00
sg71
I311
sg72
I9
sbag0
(g62
g2
Ntp1006
Rp1007
(dp1008
g66
I62
sg67
I0
sg68
I01
sg69
I2
sg70
I00
sg71
I312
sg72
I9
sbag0
(g62
g2
Ntp1009
Rp1010
(dp1011
g66
I236
sg67
I0
sg68
I01
sg69
I1
sg70
I00
sg71
I313
sg72
I9
sbag0
(g62
g2
Ntp1012
Rp1013
(dp1014
g66
I496
sg67
I0
sg68
I01
sg69
I1
sg70
I00
sg71
I314
sg72
I9
sbag0
(g62
g2
Ntp1015
Rp1016
(dp1017
g66
I7
sg67
I0
sg68
I01
sg69
I2
sg70
I00
sg71
I315
sg72
I9
sbag0
(g62
g2
Ntp1018
Rp1019
(dp1020
g66
I62
sg67
I0
sg68
I01
sg69
I2
sg70
I00
sg71
I316
sg72
I9
sbag0
(g62
g2
Ntp1021
Rp1022
(dp1023
g66
I236
sg67
I0
sg68
I01
sg69
I1
sg70
I00
sg71
I317
sg72
I9
sbag0
(g62
g2
Ntp1024
Rp1025
(dp1026
g66
I511
sg67
I0
sg68
I01
sg69
I2
sg70
I00
sg71
I318
sg72
I9
sbag0
(g62
g2
Ntp1027
Rp1028
(dp1029
g66
I511
sg67
I0
sg68
I01
sg69
I2
sg70
I00
sg71
I319
sg72
I9
sbag0
(g62
g2
Ntp1030
Rp1031
(dp1032
g66
I236
sg67
I0
sg68
I01
sg69
I1
sg70
I00
sg71
I320
sg72
I9
sbag0
(g62
g2
Ntp1033
Rp1034
(dp1035
g66
I236
sg67
I0
sg68
I01
sg69
I1
sg70
I00
sg71
I321
sg72
I9
sbag0
(g62
g2
Ntp1036
Rp1037
(dp1038
g66
I428
sg67
I0
sg68
I01
sg69
I3
sg70
I00
sg71
I322
sg72
I9
sbag0
(g62
g2
Ntp1039
Rp1040
(dp1041
g66
I496
sg67
I0
sg68
I01
sg69
I1
sg70
I00
sg71
I323
sg72
I9
sbag0
(g62
g2
Ntp1042
Rp1043
(dp1044
g66
I496
sg67
I0
sg68
I01
sg69
I1
sg70
I00
sg71
I324
sg72
I9
sbag0
(g62
g2
Ntp1045
Rp1046
(dp1047
g66
I496
sg67
I0
sg68
I01
sg69
I1
sg70
I00
sg71
I325
sg72
I9
sbag0
(g62
g2
Ntp1048
Rp1049
(dp1050
g66
I98
sg67
I0
sg68
I01
sg69
I2
sg70
I00
sg71
I326
sg72
I9
sbag0
(g62
g2
Ntp1051
Rp1052
(dp1053
g66
Nsg67
I0
sg68
I00
sg69
I1
sg70
I01
sg71
I327
sg72
I9
sbag0
(g62
g2
Ntp1054
Rp1055
(dp1056
g66
I511
sg67
I0
sg68
I01
sg69
I2
sg70
I00
sg71
I328
sg72
I9
sbag0
(g62
g2
Ntp1057
Rp1058
(dp1059
g66
I511
sg67
I0
sg68
I01
sg69
I2
sg70
I00
sg71
I329
sg72
I9
sbag0
(g62
g2
Ntp1060
Rp1061
(dp1062
g66
I472
sg67
I0
sg68
I01
sg69
I1
sg70
I00
sg71
I330
sg72
I9
sbag0
(g62
g2
Ntp1063
Rp1064
(dp1065
g66
I443
sg67
I0
sg68
I01
sg69
I2
sg70
I00
sg71
I331
sg72
I9
sbag0
(g62
g2
Ntp1066
Rp1067
(dp1068
g66
I379
sg67
I0
sg68
I01
sg69
I3
sg70
I00
sg71
I332
sg72
I9
sbag0
(g62
g2
Ntp1069
Rp1070
(dp1071
g66
I443
sg67
I0
sg68
I01
sg69
I2
sg70
I00
sg71
I333
sg72
I9
sbag0
(g62
g2
Ntp1072
Rp1073
(dp1074
g66
I62
sg67
I0
sg68
I01
sg69
I2
sg70
I00
sg71
I334
sg72
I9
sbag0
(g62
g2
Ntp1075
Rp1076
(dp1077
g66
I7
sg67
I0
sg68
I01
sg69
I2
sg70
I00
sg71
I335
sg72
I9
sbag0
(g62
g2
Ntp1078
Rp1079
(dp1080
g66
I496
sg67
I0
sg68
I01
sg69
I1
sg70
I00
sg71
I336
sg72
I9
sbag0
(g62
g2
Ntp1081
Rp1082
(dp1083
g66
I236
sg67
I0
sg68
I01
sg69
I1
sg70
I00
sg71
I337
sg72
I9
sbag0
(g62
g2
Ntp1084
Rp1085
(dp1086
g66
I98
sg67
I0
sg68
I01
sg69
I2
sg70
I00
sg71
I338
sg72
I9
sbag0
(g62
g2
Ntp1087
Rp1088
(dp1089
g66
I7
sg67
I0
sg68
I01
sg69
I2
sg70
I00
sg71
I339
sg72
I9
sbag0
(g62
g2
Ntp1090
Rp1091
(dp1092
g66
I496
sg67
I0
sg68
I01
sg69
I1
sg70
I00
sg71
I340
sg72
I9
sbag0
(g62
g2
Ntp1093
Rp1094
(dp1095
g66
I62
sg67
I0
sg68
I01
sg69
I2
sg70
I00
sg71
I341
sg72
I9
sbag0
(g62
g2
Ntp1096
Rp1097
(dp1098
g66
I428
sg67
I0
sg68
I01
sg69
I3
sg70
I00
sg71
I342
sg72
I9
sbag0
(g62
g2
Ntp1099
Rp1100
(dp1101
g66
I428
sg67
I0
sg68
I01
sg69
I3
sg70
I00
sg71
I343
sg72
I9
sbag0
(g62
g2
Ntp1102
Rp1103
(dp1104
g66
I511
sg67
I0
sg68
I01
sg69
I2
sg70
I00
sg71
I344
sg72
I9
sbag0
(g62
g2
Ntp1105
Rp1106
(dp1107
g66
I236
sg67
I0
sg68
I01
sg69
I1
sg70
I00
sg71
I345
sg72
I9
sbag0
(g62
g2
Ntp1108
Rp1109
(dp1110
g66
I496
sg67
I0
sg68
I01
sg69
I1
sg70
I00
sg71
I346
sg72
I9
sbag0
(g62
g2
Ntp1111
Rp1112
(dp1113
g66
I496
sg67
I0
sg68
I01
sg69
I1
sg70
I00
sg71
I347
sg72
I9
sbag0
(g62
g2
Ntp1114
Rp1115
(dp1116
g66
I511
sg67
I0
sg68
I01
sg69
I2
sg70
I00
sg71
I348
sg72
I9
sbag0
(g62
g2
Ntp1117
Rp1118
(dp1119
g66
I447
sg67
I0
sg68
I01
sg69
I1
sg70
I00
sg71
I349
sg72
I9
sbag0
(g62
g2
Ntp1120
Rp1121
(dp1122
g66
I443
sg67
I0
sg68
I01
sg69
I2
sg70
I00
sg71
I350
sg72
I9
sbag0
(g62
g2
Ntp1123
Rp1124
(dp1125
g66
I443
sg67
I0
sg68
I01
sg69
I2
sg70
I00
sg71
I351
sg72
I9
sbag0
(g62
g2
Ntp1126
Rp1127
(dp1128
g66
I496
sg67
I0
sg68
I01
sg69
I1
sg70
I00
sg71
I352
sg72
I9
sbag0
(g62
g2
Ntp1129
Rp1130
(dp1131
g66
I496
sg67
I0
sg68
I01
sg69
I1
sg70
I00
sg71
I353
sg72
I9
sbag0
(g62
g2
Ntp1132
Rp1133
(dp1134
g66
I428
sg67
I0
sg68
I01
sg69
I3
sg70
I00
sg71
I354
sg72
I9
sbag0
(g62
g2
Ntp1135
Rp1136
(dp1137
g66
I62
sg67
I0
sg68
I01
sg69
I2
sg70
I00
sg71
I355
sg72
I9
sbag0
(g62
g2
Ntp1138
Rp1139
(dp1140
g66
I443
sg67
I0
sg68
I01
sg69
I2
sg70
I00
sg71
I356
sg72
I9
sbag0
(g62
g2
Ntp1141
Rp1142
(dp1143
g66
I447
sg67
I0
sg68
I01
sg69
I1
sg70
I00
sg71
I357
sg72
I9
sbag0
(g62
g2
Ntp1144
Rp1145
(dp1146
g66
I122
sg67
I0
sg68
I01
sg69
I1
sg70
I00
sg71
I358
sg72
I9
sbag0
(g62
g2
Ntp1147
Rp1148
(dp1149
g66
I496
sg67
I0
sg68
I01
sg69
I1
sg70
I00
sg71
I359
sg72
I9
sbag0
(g62
g2
Ntp1150
Rp1151
(dp1152
g66
I79
sg67
I0
sg68
I01
sg69
I2
sg70
I00
sg71
I360
sg72
I9
sbag0
(g62
g2
Ntp1153
Rp1154
(dp1155
g66
I496
sg67
I0
sg68
I01
sg69
I1
sg70
I00
sg71
I361
sg72
I9
sbag0
(g62
g2
Ntp1156
Rp1157
(dp1158
g66
I443
sg67
I0
sg68
I01
sg69
I2
sg70
I00
sg71
I362
sg72
I9
sbag0
(g62
g2
Ntp1159
Rp1160
(dp1161
g66
I511
sg67
I0
sg68
I01
sg69
I2
sg70
I00
sg71
I363
sg72
I9
sbag0
(g62
g2
Ntp1162
Rp1163
(dp1164
g66
I511
sg67
I0
sg68
I01
sg69
I2
sg70
I00
sg71
I364
sg72
I9
sbag0
(g62
g2
Ntp1165
Rp1166
(dp1167
g66
Nsg67
I0
sg68
I00
sg69
I4
sg70
I01
sg71
I365
sg72
I9
sbag0
(g62
g2
Ntp1168
Rp1169
(dp1170
g66
I7
sg67
I0
sg68
I01
sg69
I2
sg70
I00
sg71
I366
sg72
I9
sbag0
(g62
g2
Ntp1171
Rp1172
(dp1173
g66
I496
sg67
I0
sg68
I01
sg69
I1
sg70
I00
sg71
I367
sg72
I9
sbag0
(g62
g2
Ntp1174
Rp1175
(dp1176
g66
I496
sg67
I0
sg68
I01
sg69
I1
sg70
I00
sg71
I368
sg72
I9
sbag0
(g62
g2
Ntp1177
Rp1178
(dp1179
g66
I236
sg67
I0
sg68
I01
sg69
I1
sg70
I00
sg71
I369
sg72
I9
sbag0
(g62
g2
Ntp1180
Rp1181
(dp1182
g66
I428
sg67
I0
sg68
I01
sg69
I3
sg70
I00
sg71
I370
sg72
I9
sbag0
(g62
g2
Ntp1183
Rp1184
(dp1185
g66
I443
sg67
I0
sg68
I01
sg69
I2
sg70
I00
sg71
I371
sg72
I9
sbag0
(g62
g2
Ntp1186
Rp1187
(dp1188
g66
I496
sg67
I0
sg68
I01
sg69
I1
sg70
I00
sg71
I372
sg72
I9
sbag0
(g62
g2
Ntp1189
Rp1190
(dp1191
g66
I62
sg67
I0
sg68
I01
sg69
I2
sg70
I00
sg71
I373
sg72
I9
sbag0
(g62
g2
Ntp1192
Rp1193
(dp1194
g66
I62
sg67
I0
sg68
I01
sg69
I2
sg70
I00
sg71
I374
sg72
I9
sbag0
(g62
g2
Ntp1195
Rp1196
(dp1197
g66
I62
sg67
I0
sg68
I01
sg69
I2
sg70
I00
sg71
I375
sg72
I9
sbag0
(g62
g2
Ntp1198
Rp1199
(dp1200
g66
I62
sg67
I0
sg68
I01
sg69
I2
sg70
I00
sg71
I376
sg72
I9
sbag0
(g62
g2
Ntp1201
Rp1202
(dp1203
g66
I511
sg67
I0
sg68
I01
sg69
I2
sg70
I00
sg71
I377
sg72
I9
sbag0
(g62
g2
Ntp1204
Rp1205
(dp1206
g66
I428
sg67
I0
sg68
I01
sg69
I3
sg70
I00
sg71
I378
sg72
I9
sbag0
(g62
g2
Ntp1207
Rp1208
(dp1209
g66
Nsg67
I2
sg68
I00
sg69
I3
sg70
I01
sg71
I379
sg72
I9
sbag0
(g62
g2
Ntp1210
Rp1211
(dp1212
g66
I62
sg67
I0
sg68
I01
sg69
I2
sg70
I00
sg71
I380
sg72
I9
sbag0
(g62
g2
Ntp1213
Rp1214
(dp1215
g66
I443
sg67
I0
sg68
I01
sg69
I2
sg70
I00
sg71
I381
sg72
I9
sbag0
(g62
g2
Ntp1216
Rp1217
(dp1218
g66
I496
sg67
I0
sg68
I01
sg69
I1
sg70
I00
sg71
I382
sg72
I9
sbag0
(g62
g2
Ntp1219
Rp1220
(dp1221
g66
I236
sg67
I0
sg68
I01
sg69
I1
sg70
I00
sg71
I383
sg72
I9
sbag0
(g62
g2
Ntp1222
Rp1223
(dp1224
g66
I428
sg67
I0
sg68
I01
sg69
I3
sg70
I00
sg71
I384
sg72
I9
sbag0
(g62
g2
Ntp1225
Rp1226
(dp1227
g66
I100
sg67
I0
sg68
I01
sg69
I1
sg70
I00
sg71
I385
sg72
I9
sbag0
(g62
g2
Ntp1228
Rp1229
(dp1230
g66
I496
sg67
I0
sg68
I01
sg69
I1
sg70
I00
sg71
I386
sg72
I9
sbag0
(g62
g2
Ntp1231
Rp1232
(dp1233
g66
I236
sg67
I0
sg68
I01
sg69
I1
sg70
I00
sg71
I387
sg72
I9
sbag0
(g62
g2
Ntp1234
Rp1235
(dp1236
g66
I7
sg67
I0
sg68
I01
sg69
I2
sg70
I00
sg71
I388
sg72
I9
sbag0
(g62
g2
Ntp1237
Rp1238
(dp1239
g66
I7
sg67
I0
sg68
I01
sg69
I2
sg70
I00
sg71
I389
sg72
I9
sbag0
(g62
g2
Ntp1240
Rp1241
(dp1242
g66
I496
sg67
I0
sg68
I01
sg69
I1
sg70
I00
sg71
I390
sg72
I9
sbag0
(g62
g2
Ntp1243
Rp1244
(dp1245
g66
I122
sg67
I0
sg68
I01
sg69
I1
sg70
I00
sg71
I391
sg72
I9
sbag0
(g62
g2
Ntp1246
Rp1247
(dp1248
g66
I511
sg67
I0
sg68
I01
sg69
I2
sg70
I00
sg71
I392
sg72
I9
sbag0
(g62
g2
Ntp1249
Rp1250
(dp1251
g66
I62
sg67
I0
sg68
I01
sg69
I2
sg70
I00
sg71
I393
sg72
I9
sbag0
(g62
g2
Ntp1252
Rp1253
(dp1254
g66
I236
sg67
I0
sg68
I01
sg69
I1
sg70
I00
sg71
I394
sg72
I9
sbag0
(g62
g2
Ntp1255
Rp1256
(dp1257
g66
I236
sg67
I0
sg68
I01
sg69
I1
sg70
I00
sg71
I395
sg72
I9
sbag0
(g62
g2
Ntp1258
Rp1259
(dp1260
g66
I511
sg67
I0
sg68
I01
sg69
I2
sg70
I00
sg71
I396
sg72
I9
sbag0
(g62
g2
Ntp1261
Rp1262
(dp1263
g66
I62
sg67
I0
sg68
I01
sg69
I2
sg70
I00
sg71
I397
sg72
I9
sbag0
(g62
g2
Ntp1264
Rp1265
(dp1266
g66
I488
sg67
I0
sg68
I01
sg69
I1
sg70
I00
sg71
I398
sg72
I9
sbag0
(g62
g2
Ntp1267
Rp1268
(dp1269
g66
I488
sg67
I0
sg68
I01
sg69
I1
sg70
I00
sg71
I399
sg72
I9
sbag0
(g62
g2
Ntp1270
Rp1271
(dp1272
g66
I7
sg67
I0
sg68
I01
sg69
I2
sg70
I00
sg71
I400
sg72
I9
sbag0
(g62
g2
Ntp1273
Rp1274
(dp1275
g66
I7
sg67
I0
sg68
I01
sg69
I2
sg70
I00
sg71
I401
sg72
I9
sbag0
(g62
g2
Ntp1276
Rp1277
(dp1278
g66
I62
sg67
I0
sg68
I01
sg69
I2
sg70
I00
sg71
I402
sg72
I9
sbag0
(g62
g2
Ntp1279
Rp1280
(dp1281
g66
I511
sg67
I0
sg68
I01
sg69
I2
sg70
I00
sg71
I403
sg72
I9
sbag0
(g62
g2
Ntp1282
Rp1283
(dp1284
g66
I511
sg67
I0
sg68
I01
sg69
I2
sg70
I00
sg71
I404
sg72
I9
sbag0
(g62
g2
Ntp1285
Rp1286
(dp1287
g66
I511
sg67
I0
sg68
I01
sg69
I2
sg70
I00
sg71
I405
sg72
I9
sbag0
(g62
g2
Ntp1288
Rp1289
(dp1290
g66
I496
sg67
I0
sg68
I01
sg69
I1
sg70
I00
sg71
I406
sg72
I9
sbag0
(g62
g2
Ntp1291
Rp1292
(dp1293
g66
I511
sg67
I0
sg68
I01
sg69
I2
sg70
I00
sg71
I407
sg72
I9
sbag0
(g62
g2
Ntp1294
Rp1295
(dp1296
g66
I62
sg67
I0
sg68
I01
sg69
I2
sg70
I00
sg71
I408
sg72
I9
sbag0
(g62
g2
Ntp1297
Rp1298
(dp1299
g66
I496
sg67
I0
sg68
I01
sg69
I1
sg70
I00
sg71
I409
sg72
I9
sbag0
(g62
g2
Ntp1300
Rp1301
(dp1302
g66
I511
sg67
I0
sg68
I01
sg69
I2
sg70
I00
sg71
I410
sg72
I9
sbag0
(g62
g2
Ntp1303
Rp1304
(dp1305
g66
I511
sg67
I0
sg68
I01
sg69
I2
sg70
I00
sg71
I411
sg72
I9
sbag0
(g62
g2
Ntp1306
Rp1307
(dp1308
g66
I7
sg67
I0
sg68
I01
sg69
I2
sg70
I00
sg71
I412
sg72
I9
sbag0
(g62
g2
Ntp1309
Rp1310
(dp1311
g66
I33
sg67
I0
sg68
I01
sg69
I2
sg70
I00
sg71
I413
sg72
I9
sbag0
(g62
g2
Ntp1312
Rp1313
(dp1314
g66
I62
sg67
I0
sg68
I01
sg69
I2
sg70
I00
sg71
I414
sg72
I9
sbag0
(g62
g2
Ntp1315
Rp1316
(dp1317
g66
I511
sg67
I0
sg68
I01
sg69
I2
sg70
I00
sg71
I415
sg72
I9
sbag0
(g62
g2
Ntp1318
Rp1319
(dp1320
g66
I443
sg67
I0
sg68
I01
sg69
I2
sg70
I00
sg71
I416
sg72
I9
sbag0
(g62
g2
Ntp1321
Rp1322
(dp1323
g66
I511
sg67
I0
sg68
I01
sg69
I2
sg70
I00
sg71
I417
sg72
I9
sbag0
(g62
g2
Ntp1324
Rp1325
(dp1326
g66
I236
sg67
I0
sg68
I01
sg69
I1
sg70
I00
sg71
I418
sg72
I9
sbag0
(g62
g2
Ntp1327
Rp1328
(dp1329
g66
I496
sg67
I0
sg68
I01
sg69
I1
sg70
I00
sg71
I419
sg72
I9
sbag0
(g62
g2
Ntp1330
Rp1331
(dp1332
g66
I496
sg67
I0
sg68
I01
sg69
I1
sg70
I00
sg71
I420
sg72
I9
sbag0
(g62
g2
Ntp1333
Rp1334
(dp1335
g66
I186
sg67
I0
sg68
I01
sg69
I2
sg70
I00
sg71
I421
sg72
I9
sbag0
(g62
g2
Ntp1336
Rp1337
(dp1338
g66
I488
sg67
I0
sg68
I01
sg69
I1
sg70
I00
sg71
I422
sg72
I9
sbag0
(g62
g2
Ntp1339
Rp1340
(dp1341
g66
I511
sg67
I0
sg68
I01
sg69
I2
sg70
I00
sg71
I423
sg72
I9
sbag0
(g62
g2
Ntp1342
Rp1343
(dp1344
g66
I496
sg67
I0
sg68
I01
sg69
I1
sg70
I00
sg71
I424
sg72
I9
sbag0
(g62
g2
Ntp1345
Rp1346
(dp1347
g66
I443
sg67
I0
sg68
I01
sg69
I2
sg70
I00
sg71
I425
sg72
I9
sbag0
(g62
g2
Ntp1348
Rp1349
(dp1350
g66
I496
sg67
I0
sg68
I01
sg69
I1
sg70
I00
sg71
I426
sg72
I9
sbag0
(g62
g2
Ntp1351
Rp1352
(dp1353
g66
I496
sg67
I0
sg68
I01
sg69
I1
sg70
I00
sg71
I427
sg72
I9
sbag0
(g62
g2
Ntp1354
Rp1355
(dp1356
g66
Nsg67
I21
sg68
I00
sg69
I3
sg70
I01
sg71
I428
sg72
I9
sbag0
(g62
g2
Ntp1357
Rp1358
(dp1359
g66
I496
sg67
I0
sg68
I01
sg69
I1
sg70
I00
sg71
I429
sg72
I9
sbag0
(g62
g2
Ntp1360
Rp1361
(dp1362
g66
I496
sg67
I0
sg68
I01
sg69
I1
sg70
I00
sg71
I430
sg72
I9
sbag0
(g62
g2
Ntp1363
Rp1364
(dp1365
g66
I496
sg67
I0
sg68
I01
sg69
I1
sg70
I00
sg71
I431
sg72
I9
sbag0
(g62
g2
Ntp1366
Rp1367
(dp1368
g66
I62
sg67
I0
sg68
I01
sg69
I2
sg70
I00
sg71
I432
sg72
I9
sbag0
(g62
g2
Ntp1369
Rp1370
(dp1371
g66
I428
sg67
I0
sg68
I01
sg69
I3
sg70
I00
sg71
I433
sg72
I9
sbag0
(g62
g2
Ntp1372
Rp1373
(dp1374
g66
I496
sg67
I0
sg68
I01
sg69
I1
sg70
I00
sg71
I434
sg72
I9
sbag0
(g62
g2
Ntp1375
Rp1376
(dp1377
g66
I496
sg67
I0
sg68
I01
sg69
I1
sg70
I00
sg71
I435
sg72
I9
sbag0
(g62
g2
Ntp1378
Rp1379
(dp1380
g66
I7
sg67
I0
sg68
I01
sg69
I2
sg70
I00
sg71
I436
sg72
I9
sbag0
(g62
g2
Ntp1381
Rp1382
(dp1383
g66
I511
sg67
I0
sg68
I01
sg69
I2
sg70
I00
sg71
I437
sg72
I9
sbag0
(g62
g2
Ntp1384
Rp1385
(dp1386
g66
I100
sg67
I0
sg68
I01
sg69
I1
sg70
I00
sg71
I438
sg72
I9
sbag0
(g62
g2
Ntp1387
Rp1388
(dp1389
g66
I496
sg67
I0
sg68
I01
sg69
I1
sg70
I00
sg71
I439
sg72
I9
sbag0
(g62
g2
Ntp1390
Rp1391
(dp1392
g66
I496
sg67
I0
sg68
I01
sg69
I1
sg70
I00
sg71
I440
sg72
I9
sbag0
(g62
g2
Ntp1393
Rp1394
(dp1395
g66
I443
sg67
I0
sg68
I01
sg69
I2
sg70
I00
sg71
I441
sg72
I9
sbag0
(g62
g2
Ntp1396
Rp1397
(dp1398
g66
I496
sg67
I0
sg68
I01
sg69
I1
sg70
I00
sg71
I442
sg72
I9
sbag0
(g62
g2
Ntp1399
Rp1400
(dp1401
g66
Nsg67
I32
sg68
I00
sg69
I2
sg70
I01
sg71
I443
sg72
I9
sbag0
(g62
g2
Ntp1402
Rp1403
(dp1404
g66
I496
sg67
I0
sg68
I01
sg69
I1
sg70
I00
sg71
I444
sg72
I9
sbag0
(g62
g2
Ntp1405
Rp1406
(dp1407
g66
I59
sg67
I0
sg68
I01
sg69
I2
sg70
I00
sg71
I445
sg72
I9
sbag0
(g62
g2
Ntp1408
Rp1409
(dp1410
g66
I511
sg67
I0
sg68
I01
sg69
I2
sg70
I00
sg71
I446
sg72
I9
sbag0
(g62
g2
Ntp1411
Rp1412
(dp1413
g66
Nsg67
I6
sg68
I00
sg69
I1
sg70
I01
sg71
I447
sg72
I9
sbag0
(g62
g2
Ntp1414
Rp1415
(dp1416
g66
I496
sg67
I0
sg68
I01
sg69
I1
sg70
I00
sg71
I448
sg72
I9
sbag0
(g62
g2
Ntp1417
Rp1418
(dp1419
g66
I496
sg67
I0
sg68
I01
sg69
I1
sg70
I00
sg71
I449
sg72
I9
sbag0
(g62
g2
Ntp1420
Rp1421
(dp1422
g66
I98
sg67
I0
sg68
I01
sg69
I2
sg70
I00
sg71
I450
sg72
I9
sbag0
(g62
g2
Ntp1423
Rp1424
(dp1425
g66
I496
sg67
I0
sg68
I01
sg69
I1
sg70
I00
sg71
I451
sg72
I9
sbag0
(g62
g2
Ntp1426
Rp1427
(dp1428
g66
I236
sg67
I0
sg68
I01
sg69
I1
sg70
I00
sg71
I452
sg72
I9
sbag0
(g62
g2
Ntp1429
Rp1430
(dp1431
g66
I236
sg67
I0
sg68
I01
sg69
I1
sg70
I00
sg71
I453
sg72
I9
sbag0
(g62
g2
Ntp1432
Rp1433
(dp1434
g66
I428
sg67
I0
sg68
I01
sg69
I3
sg70
I00
sg71
I454
sg72
I9
sbag0
(g62
g2
Ntp1435
Rp1436
(dp1437
g66
I443
sg67
I0
sg68
I01
sg69
I2
sg70
I00
sg71
I455
sg72
I9
sbag0
(g62
g2
Ntp1438
Rp1439
(dp1440
g66
I443
sg67
I0
sg68
I01
sg69
I2
sg70
I00
sg71
I456
sg72
I9
sbag0
(g62
g2
Ntp1441
Rp1442
(dp1443
g66
I62
sg67
I0
sg68
I01
sg69
I2
sg70
I00
sg71
I457
sg72
I9
sbag0
(g62
g2
Ntp1444
Rp1445
(dp1446
g66
I33
sg67
I0
sg68
I01
sg69
I2
sg70
I00
sg71
I458
sg72
I9
sbag0
(g62
g2
Ntp1447
Rp1448
(dp1449
g66
I7
sg67
I0
sg68
I01
sg69
I2
sg70
I00
sg71
I459
sg72
I9
sbag0
(g62
g2
Ntp1450
Rp1451
(dp1452
g66
I443
sg67
I0
sg68
I01
sg69
I2
sg70
I00
sg71
I460
sg72
I9
sbag0
(g62
g2
Ntp1453
Rp1454
(dp1455
g66
I496
sg67
I0
sg68
I01
sg69
I1
sg70
I00
sg71
I461
sg72
I9
sbag0
(g62
g2
Ntp1456
Rp1457
(dp1458
g66
I496
sg67
I0
sg68
I01
sg69
I1
sg70
I00
sg71
I462
sg72
I9
sbag0
(g62
g2
Ntp1459
Rp1460
(dp1461
g66
I443
sg67
I0
sg68
I01
sg69
I2
sg70
I00
sg71
I463
sg72
I9
sbag0
(g62
g2
Ntp1462
Rp1463
(dp1464
g66
Nsg67
I0
sg68
I00
sg69
I1
sg70
I01
sg71
I464
sg72
I9
sbag0
(g62
g2
Ntp1465
Rp1466
(dp1467
g66
I511
sg67
I0
sg68
I01
sg69
I2
sg70
I00
sg71
I465
sg72
I9
sbag0
(g62
g2
Ntp1468
Rp1469
(dp1470
g66
I480
sg67
I0
sg68
I01
sg69
I1
sg70
I00
sg71
I466
sg72
I9
sbag0
(g62
g2
Ntp1471
Rp1472
(dp1473
g66
I496
sg67
I0
sg68
I01
sg69
I1
sg70
I00
sg71
I467
sg72
I9
sbag0
(g62
g2
Ntp1474
Rp1475
(dp1476
g66
I62
sg67
I0
sg68
I01
sg69
I2
sg70
I00
sg71
I468
sg72
I9
sbag0
(g62
g2
Ntp1477
Rp1478
(dp1479
g66
I443
sg67
I0
sg68
I01
sg69
I2
sg70
I00
sg71
I469
sg72
I9
sbag0
(g62
g2
Ntp1480
Rp1481
(dp1482
g66
I496
sg67
I0
sg68
I01
sg69
I1
sg70
I00
sg71
I470
sg72
I9
sbag0
(g62
g2
Ntp1483
Rp1484
(dp1485
g66
I496
sg67
I0
sg68
I01
sg69
I1
sg70
I00
sg71
I471
sg72
I9
sbag0
(g62
g2
Ntp1486
Rp1487
(dp1488
g66
Nsg67
I1
sg68
I00
sg69
I1
sg70
I01
sg71
I472
sg72
I9
sbag0
(g62
g2
Ntp1489
Rp1490
(dp1491
g66
I428
sg67
I0
sg68
I01
sg69
I3
sg70
I00
sg71
I473
sg72
I9
sbag0
(g62
g2
Ntp1492
Rp1493
(dp1494
g66
I496
sg67
I0
sg68
I01
sg69
I1
sg70
I00
sg71
I474
sg72
I9
sbag0
(g62
g2
Ntp1495
Rp1496
(dp1497
g66
I496
sg67
I0
sg68
I01
sg69
I1
sg70
I00
sg71
I475
sg72
I9
sbag0
(g62
g2
Ntp1498
Rp1499
(dp1500
g66
I7
sg67
I0
sg68
I01
sg69
I2
sg70
I00
sg71
I476
sg72
I9
sbag0
(g62
g2
Ntp1501
Rp1502
(dp1503
g66
I443
sg67
I0
sg68
I01
sg69
I2
sg70
I00
sg71
I477
sg72
I9
sbag0
(g62
g2
Ntp1504
Rp1505
(dp1506
g66
I496
sg67
I0
sg68
I01
sg69
I1
sg70
I00
sg71
I478
sg72
I9
sbag0
(g62
g2
Ntp1507
Rp1508
(dp1509
g66
I236
sg67
I0
sg68
I01
sg69
I1
sg70
I00
sg71
I479
sg72
I9
sbag0
(g62
g2
Ntp1510
Rp1511
(dp1512
g66
Nsg67
I3
sg68
I00
sg69
I1
sg70
I01
sg71
I480
sg72
I9
sbag0
(g62
g2
Ntp1513
Rp1514
(dp1515
g66
I496
sg67
I0
sg68
I01
sg69
I1
sg70
I00
sg71
I481
sg72
I9
sbag0
(g62
g2
Ntp1516
Rp1517
(dp1518
g66
I122
sg67
I0
sg68
I01
sg69
I1
sg70
I00
sg71
I482
sg72
I9
sbag0
(g62
g2
Ntp1519
Rp1520
(dp1521
g66
I62
sg67
I0
sg68
I01
sg69
I2
sg70
I00
sg71
I483
sg72
I9
sbag0
(g62
g2
Ntp1522
Rp1523
(dp1524
g66
I496
sg67
I0
sg68
I01
sg69
I1
sg70
I00
sg71
I484
sg72
I9
sbag0
(g62
g2
Ntp1525
Rp1526
(dp1527
g66
I59
sg67
I0
sg68
I01
sg69
I2
sg70
I00
sg71
I485
sg72
I9
sbag0
(g62
g2
Ntp1528
Rp1529
(dp1530
g66
I428
sg67
I0
sg68
I01
sg69
I3
sg70
I00
sg71
I486
sg72
I9
sbag0
(g62
g2
Ntp1531
Rp1532
(dp1533
g66
I62
sg67
I0
sg68
I01
sg69
I2
sg70
I00
sg71
I487
sg72
I9
sbag0
(g62
g2
Ntp1534
Rp1535
(dp1536
g66
Nsg67
I3
sg68
I00
sg69
I1
sg70
I01
sg71
I488
sg72
I9
sbag0
(g62
g2
Ntp1537
Rp1538
(dp1539
g66
I496
sg67
I0
sg68
I01
sg69
I1
sg70
I00
sg71
I489
sg72
I9
sbag0
(g62
g2
Ntp1540
Rp1541
(dp1542
g66
I511
sg67
I0
sg68
I01
sg69
I2
sg70
I00
sg71
I490
sg72
I9
sbag0
(g62
g2
Ntp1543
Rp1544
(dp1545
g66
I511
sg67
I0
sg68
I01
sg69
I2
sg70
I00
sg71
I491
sg72
I9
sbag0
(g62
g2
Ntp1546
Rp1547
(dp1548
g66
I62
sg67
I0
sg68
I01
sg69
I2
sg70
I00
sg71
I492
sg72
I9
sbag0
(g62
g2
Ntp1549
Rp1550
(dp1551
g66
I100
sg67
I0
sg68
I01
sg69
I1
sg70
I00
sg71
I493
sg72
I9
sbag0
(g62
g2
Ntp1552
Rp1553
(dp1554
g66
Nsg67
I0
sg68
I00
sg69
I1
sg70
I01
sg71
I494
sg72
I9
sbag0
(g62
g2
Ntp1555
Rp1556
(dp1557
g66
I428
sg67
I0
sg68
I01
sg69
I3
sg70
I00
sg71
I495
sg72
I9
sbag0
(g62
g2
Ntp1558
Rp1559
(dp1560
g66
Nsg67
I137
sg68
I00
sg69
I1
sg70
I01
sg71
I496
sg72
I9
sbag0
(g62
g2
Ntp1561
Rp1562
(dp1563
g66
I236
sg67
I0
sg68
I01
sg69
I1
sg70
I00
sg71
I497
sg72
I9
sbag0
(g62
g2
Ntp1564
Rp1565
(dp1566
g66
I122
sg67
I0
sg68
I01
sg69
I1
sg70
I00
sg71
I498
sg72
I9
sbag0
(g62
g2
Ntp1567
Rp1568
(dp1569
g66
I236
sg67
I0
sg68
I01
sg69
I1
sg70
I00
sg71
I499
sg72
I9
sbag0
(g62
g2
Ntp1570
Rp1571
(dp1572
g66
I496
sg67
I0
sg68
I01
sg69
I1
sg70
I00
sg71
I500
sg72
I9
sbag0
(g62
g2
Ntp1573
Rp1574
(dp1575
g66
I62
sg67
I0
sg68
I01
sg69
I2
sg70
I00
sg71
I501
sg72
I9
sbag0
(g62
g2
Ntp1576
Rp1577
(dp1578
g66
I100
sg67
I0
sg68
I01
sg69
I1
sg70
I00
sg71
I502
sg72
I9
sbag0
(g62
g2
Ntp1579
Rp1580
(dp1581
g66
I236
sg67
I0
sg68
I01
sg69
I1
sg70
I00
sg71
I503
sg72
I9
sbag0
(g62
g2
Ntp1582
Rp1583
(dp1584
g66
I496
sg67
I0
sg68
I01
sg69
I1
sg70
I00
sg71
I504
sg72
I9
sbag0
(g62
g2
Ntp1585
Rp1586
(dp1587
g66
I236
sg67
I0
sg68
I01
sg69
I1
sg70
I00
sg71
I505
sg72
I9
sbag0
(g62
g2
Ntp1588
Rp1589
(dp1590
g66
I443
sg67
I0
sg68
I01
sg69
I2
sg70
I00
sg71
I506
sg72
I9
sbag0
(g62
g2
Ntp1591
Rp1592
(dp1593
g66
I443
sg67
I0
sg68
I01
sg69
I2
sg70
I00
sg71
I507
sg72
I9
sbag0
(g62
g2
Ntp1594
Rp1595
(dp1596
g66
I496
sg67
I0
sg68
I01
sg69
I1
sg70
I00
sg71
I508
sg72
I9
sbag0
(g62
g2
Ntp1597
Rp1598
(dp1599
g66
I62
sg67
I0
sg68
I01
sg69
I2
sg70
I00
sg71
I509
sg72
I9
sbag0
(g62
g2
Ntp1600
Rp1601
(dp1602
g66
I443
sg67
I0
sg68
I01
sg69
I2
sg70
I00
sg71
I510
sg72
I9
sbag0
(g62
g2
Ntp1603
Rp1604
(dp1605
g66
Nsg67
I73
sg68
I00
sg69
I2
sg70
I01
sg71
I511
sg72
I9
sbasS'linksList'
p1606
(lp1607
(lp1608
I0
aI6
aI7
aI1
aI4
aa(lp1609
I7
aI0
aI4
aI5
aI2
aa(lp1610
I7
aI0
aI4
aI1
aI5
aa(lp1611
I8
aI6
aI5
aI2
aI4
aa(lp1612
I7
aI2
aI3
aI4
aI5
aa(lp1613
I0
aI5
aI4
aI3
aI1
aa(lp1614
I2
aI4
aI6
aI7
aI8
aa(lp1615
I7
aI5
aI4
aI8
aI2
aa(lp1616
I8
aI4
aI0
aI1
aI7
aasb.