ccopy_reg
_reconstructor
p0
(cNK_Network.Automata
NK_Automata
p1
c__builtin__
object
p2
Ntp3
Rp4
(dp5
S'stability'
p6
F1.0
sS'stateSpan'
p7
(dp8
I0
I11
sI1
I0
sI2
I10
sI3
I28
sI4
I8
sI5
I30
sI6
I9
sI7
I10
sI8
I26
sI9
I11
sI10
I22
sI11
I26
sI12
I10
sI13
I12
sI14
I12
sI15
I11
sI16
I11
sI17
I27
sI18
I23
sI19
I8
sI20
I25
sI21
I6
sI22
I16
sI23
I1
sI24
I31
sI25
I18
sI26
I24
sI27
I22
sI28
I14
sI29
I10
sI30
I20
sI31
I28
ssS'attractorDict'
p9
(dp10
I1
(lp11
I10
aI22
assS'K'
p12
I5
sS'ordinalNumber'
p13
I-1
sS'N'
p14
I5
sS'basinAmount'
p15
I1
sS'functionsList'
p16
(lp17
g0
(cNK_Network.BoolFunction
BoolFunction
p18
g2
Ntp19
Rp20
(dp21
S'valuesString'
p22
S'01000010011011000100110011110101'
p23
sg12
I5
sbag0
(g18
g2
Ntp24
Rp25
(dp26
g22
S'11111101111100100111111110011001'
p27
sg12
I5
sbag0
(g18
g2
Ntp28
Rp29
(dp30
g22
S'00010001000110100100101010000111'
p31
sg12
I5
sbag0
(g18
g2
Ntp32
Rp33
(dp34
g22
S'10111011111110010110010101110000'
p35
sg12
I5
sbag0
(g18
g2
Ntp36
Rp37
(dp38
g22
S'10110010001010000110000000000110'
p39
sg12
I5
sbasS'expectedReturnTime'
p40
F2.5454545454545454
sS'stateList'
p41
(lp42
g0
(cNK_Network.State
State
p43
g2
Ntp44
Rp45
(dp46
S'firstAttractorStateNumber'
p47
I11
sS'weight'
p48
I0
sS'inBasin'
p49
I01
sS'basinNumber'
p50
I1
sS'inAttractor'
p51
I00
sS'stateNumber'
p52
I0
sS'dimension'
p53
I5
sbag0
(g43
g2
Ntp54
Rp55
(dp56
g47
I11
sg48
I0
sg49
I01
sg50
I1
sg51
I00
sg52
I1
sg53
I5
sbag0
(g43
g2
Ntp57
Rp58
(dp59
g47
I10
sg48
I0
sg49
I01
sg50
I1
sg51
I00
sg52
I2
sg53
I5
sbag0
(g43
g2
Ntp60
Rp61
(dp62
g47
I28
sg48
I0
sg49
I01
sg50
I1
sg51
I00
sg52
I3
sg53
I5
sbag0
(g43
g2
Ntp63
Rp64
(dp65
g47
I26
sg48
I0
sg49
I01
sg50
I1
sg51
I00
sg52
I4
sg53
I5
sbag0
(g43
g2
Ntp66
Rp67
(dp68
g47
I11
sg48
I0
sg49
I01
sg50
I1
sg51
I00
sg52
I5
sg53
I5
sbag0
(g43
g2
Ntp69
Rp70
(dp71
g47
I11
sg48
I0
sg49
I01
sg50
I1
sg51
I00
sg52
I6
sg53
I5
sbag0
(g43
g2
Ntp72
Rp73
(dp74
g47
I10
sg48
I0
sg49
I01
sg50
I1
sg51
I00
sg52
I7
sg53
I5
sbag0
(g43
g2
Ntp75
Rp76
(dp77
g47
I26
sg48
I0
sg49
I01
sg50
I1
sg51
I00
sg52
I8
sg53
I5
sbag0
(g43
g2
Ntp78
Rp79
(dp80
g47
I11
sg48
I0
sg49
I01
sg50
I1
sg51
I00
sg52
I9
sg53
I5
sbag0
(g43
g2
Ntp81
Rp82
(dp83
g47
Nsg48
I3
sg49
I00
sg50
I1
sg51
I01
sg52
I10
sg53
I5
sbag0
(g43
g2
Ntp84
Rp85
(dp86
g47
Nsg48
I12
sg49
I00
sg50
I1
sg51
I01
sg52
I11
sg53
I5
sbag0
(g43
g2
Ntp87
Rp88
(dp89
g47
Nsg48
I1
sg49
I00
sg50
I1
sg51
I01
sg52
I12
sg53
I5
sbag0
(g43
g2
Ntp90
Rp91
(dp92
g47
I12
sg48
I0
sg49
I01
sg50
I1
sg51
I00
sg52
I13
sg53
I5
sbag0
(g43
g2
Ntp93
Rp94
(dp95
g47
Nsg48
I0
sg49
I00
sg50
I1
sg51
I01
sg52
I14
sg53
I5
sbag0
(g43
g2
Ntp96
Rp97
(dp98
g47
I11
sg48
I0
sg49
I01
sg50
I1
sg51
I00
sg52
I15
sg53
I5
sbag0
(g43
g2
Ntp99
Rp100
(dp101
g47
Nsg48
I0
sg49
I00
sg50
I1
sg51
I01
sg52
I16
sg53
I5
sbag0
(g43
g2
Ntp102
Rp103
(dp104
g47
I22
sg48
I0
sg49
I01
sg50
I1
sg51
I00
sg52
I17
sg53
I5
sbag0
(g43
g2
Ntp105
Rp106
(dp107
g47
I11
sg48
I0
sg49
I01
sg50
I1
sg51
I00
sg52
I18
sg53
I5
sbag0
(g43
g2
Ntp108
Rp109
(dp110
g47
I26
sg48
I0
sg49
I01
sg50
I1
sg51
I00
sg52
I19
sg53
I5
sbag0
(g43
g2
Ntp111
Rp112
(dp113
g47
I11
sg48
I0
sg49
I01
sg50
I1
sg51
I00
sg52
I20
sg53
I5
sbag0
(g43
g2
Ntp114
Rp115
(dp116
g47
I11
sg48
I0
sg49
I01
sg50
I1
sg51
I00
sg52
I21
sg53
I5
sbag0
(g43
g2
Ntp117
Rp118
(dp119
g47
Nsg48
I2
sg49
I00
sg50
I1
sg51
I01
sg52
I22
sg53
I5
sbag0
(g43
g2
Ntp120
Rp121
(dp122
g47
I11
sg48
I0
sg49
I01
sg50
I1
sg51
I00
sg52
I23
sg53
I5
sbag0
(g43
g2
Ntp123
Rp124
(dp125
g47
Nsg48
I0
sg49
I00
sg50
I1
sg51
I01
sg52
I24
sg53
I5
sbag0
(g43
g2
Ntp126
Rp127
(dp128
g47
I11
sg48
I0
sg49
I01
sg50
I1
sg51
I00
sg52
I25
sg53
I5
sbag0
(g43
g2
Ntp129
Rp130
(dp131
g47
Nsg48
I3
sg49
I00
sg50
I1
sg51
I01
sg52
I26
sg53
I5
sbag0
(g43
g2
Ntp132
Rp133
(dp134
g47
I22
sg48
I0
sg49
I01
sg50
I1
sg51
I00
sg52
I27
sg53
I5
sbag0
(g43
g2
Ntp135
Rp136
(dp137
g47
Nsg48
I1
sg49
I00
sg50
I1
sg51
I01
sg52
I28
sg53
I5
sbag0
(g43
g2
Ntp138
Rp139
(dp140
g47
I10
sg48
I0
sg49
I01
sg50
I1
sg51
I00
sg52
I29
sg53
I5
sbag0
(g43
g2
Ntp141
Rp142
(dp143
g47
I11
sg48
I0
sg49
I01
sg50
I1
sg51
I00
sg52
I30
sg53
I5
sbag0
(g43
g2
Ntp144
Rp145
(dp146
g47
Nsg48
I0
sg49
I00
sg50
I1
sg51
I01
sg52
I31
sg53
I5
sbasS'linksList'
p147
(lp148
(lp149
I3
aI0
aI4
aI2
aI1
aa(lp150
I4
aI0
aI3
aI1
aI2
aa(lp151
I3
aI0
aI1
aI2
aI4
aa(lp152
I2
aI0
aI3
aI1
aI4
aa(lp153
I4
aI2
aI3
aI0
aI1
aasb.