ccopy_reg
_reconstructor
p0
(cNK_Network.Automata
NK_Automata
p1
c__builtin__
object
p2
Ntp3
Rp4
(dp5
S'stability'
p6
F1.0
sS'stateSpan'
p7
(dp8
S'0110'
p9
S'0111'
p10
sS'0111'
p11
S'1000'
p12
sS'0000'
p13
S'0111'
p14
sS'0001'
p15
S'1000'
p16
sS'0011'
p17
S'1110'
p18
sS'0010'
p19
S'0011'
p20
sS'0101'
p21
S'0001'
p22
sS'0100'
p23
S'1110'
p24
sS'1111'
p25
S'1100'
p26
sS'1110'
p27
S'0111'
p28
sS'1100'
p29
S'1000'
p30
sS'1101'
p31
S'0101'
p32
sS'1010'
p33
S'1111'
p34
sS'1011'
p35
S'0110'
p36
sS'1001'
p37
S'1100'
p38
sS'1000'
p39
S'1011'
p40
ssS'attractorDict'
p41
(dp42
I1
(lp43
I4
aI12
assS'K'
p44
I4
sS'ordinalNumber'
p45
I-1
sS'N'
p46
I4
sS'basinAmount'
p47
I1
sS'functionsList'
p48
(lp49
g0
(cNK_Network.BoolFunction
BoolFunction
p50
g2
Ntp51
Rp52
(dp53
S'valuesString'
p54
S'0101111010011001'
p55
sg44
I4
sbag0
(g50
g2
Ntp56
Rp57
(dp58
g54
S'1001100101111011'
p59
sg44
I4
sbag0
(g50
g2
Ntp60
Rp61
(dp62
g54
S'1111001010110010'
p63
sg44
I4
sbag0
(g50
g2
Ntp64
Rp65
(dp66
g54
S'1010101001011010'
p67
sg44
I4
sbasS'expectedReturnTime'
p68
F1.9166666666666667
sS'stateList'
p69
(lp70
g0
(cNK_Network.State
State
p71
g2
Ntp72
Rp73
(dp74
S'firstAttractorStateNumber'
p75
I7
sS'weight'
p76
I0
sS'inBasin'
p77
I01
sS'basinNumber'
p78
I1
sS'inAttractor'
p79
I00
sS'stateNumber'
p80
I0
sS'dimension'
p81
I4
sbag0
(g71
g2
Ntp82
Rp83
(dp84
g75
I8
sg76
I0
sg77
I01
sg78
I1
sg79
I00
sg80
I1
sg81
I4
sbag0
(g71
g2
Ntp85
Rp86
(dp87
g75
I7
sg76
I0
sg77
I01
sg78
I1
sg79
I00
sg80
I2
sg81
I4
sbag0
(g71
g2
Ntp88
Rp89
(dp90
g75
I7
sg76
I0
sg77
I01
sg78
I1
sg79
I00
sg80
I3
sg81
I4
sbag0
(g71
g2
Ntp91
Rp92
(dp93
g75
I7
sg76
I0
sg77
I01
sg78
I1
sg79
I00
sg80
I4
sg81
I4
sbag0
(g71
g2
Ntp94
Rp95
(dp96
g75
I8
sg76
I0
sg77
I01
sg78
I1
sg79
I00
sg80
I5
sg81
I4
sbag0
(g71
g2
Ntp97
Rp98
(dp99
g75
Nsg76
I0
sg77
I00
sg78
I1
sg79
I01
sg80
I6
sg81
I4
sbag0
(g71
g2
Ntp100
Rp101
(dp102
g75
Nsg76
I5
sg77
I00
sg78
I1
sg79
I01
sg80
I7
sg81
I4
sbag0
(g71
g2
Ntp103
Rp104
(dp105
g75
Nsg76
I7
sg77
I00
sg78
I1
sg79
I01
sg80
I8
sg81
I4
sbag0
(g71
g2
Ntp106
Rp107
(dp108
g75
I8
sg76
I0
sg77
I01
sg78
I1
sg79
I00
sg80
I9
sg81
I4
sbag0
(g71
g2
Ntp109
Rp110
(dp111
g75
I8
sg76
I0
sg77
I01
sg78
I1
sg79
I00
sg80
I10
sg81
I4
sbag0
(g71
g2
Ntp112
Rp113
(dp114
g75
Nsg76
I0
sg77
I00
sg78
I1
sg79
I01
sg80
I11
sg81
I4
sbag0
(g71
g2
Ntp115
Rp116
(dp117
g75
I8
sg76
I0
sg77
I01
sg78
I1
sg79
I00
sg80
I12
sg81
I4
sbag0
(g71
g2
Ntp118
Rp119
(dp120
g75
I8
sg76
I0
sg77
I01
sg78
I1
sg79
I00
sg80
I13
sg81
I4
sbag0
(g71
g2
Ntp121
Rp122
(dp123
g75
I7
sg76
I0
sg77
I01
sg78
I1
sg79
I00
sg80
I14
sg81
I4
sbag0
(g71
g2
Ntp124
Rp125
(dp126
g75
I8
sg76
I0
sg77
I01
sg78
I1
sg79
I00
sg80
I15
sg81
I4
sbasS'linksList'
p127
(lp128
(lp129
I1
aI0
aI2
aI3
aa(lp130
I2
aI1
aI0
aI3
aa(lp131
I0
aI3
aI2
aI1
aa(lp132
I1
aI2
aI0
aI3
aasb.