ccopy_reg
_reconstructor
p0
(cNK_Network.Automata
NK_Automata
p1
c__builtin__
object
p2
Ntp3
Rp4
(dp5
S'stability'
p6
F0.40625
sS'stateSpan'
p7
(dp8
S'10000'
p9
S'00111'
p10
sS'10001'
p11
S'10000'
p12
sS'10101'
p13
S'00010'
p14
sS'10100'
p15
S'00011'
p16
sS'01101'
p17
S'10111'
p18
sS'01100'
p19
S'01000'
p20
sS'11111'
p21
S'01011'
p22
sS'11110'
p23
S'10111'
p24
sS'11010'
p25
S'01101'
p26
sS'11011'
p27
S'01110'
p28
sS'01000'
p29
S'11001'
p30
sS'01001'
p31
S'00000'
p32
sS'00111'
p33
S'01111'
p34
sS'00110'
p35
S'11101'
p36
sS'00010'
p37
S'11110'
p38
sS'00011'
p39
S'11101'
p40
sS'10011'
p41
S'10100'
p42
sS'10010'
p43
S'11000'
p44
sS'10110'
p45
S'00001'
p46
sS'10111'
p47
S'00100'
p48
sS'01110'
p49
S'10001'
p50
sS'01111'
p51
S'01111'
p52
sS'11001'
p53
S'10000'
p54
sS'11000'
p55
S'10001'
p56
sS'11100'
p57
S'01010'
p58
sS'11101'
p59
S'10100'
p60
sS'01011'
p61
S'00001'
p62
sS'01010'
p63
S'11000'
p64
sS'00001'
p65
S'00001'
p66
sS'00000'
p67
S'11000'
p68
sS'00100'
p69
S'10100'
p70
sS'00101'
p71
S'01010'
p72
ssS'attractorDict'
p73
(dp74
I1
(lp75
I1
aI15
asI2
(lp76
I1
aI3
asI3
(lp77
I3
aI9
assS'K'
p78
I5
sS'ordinalNumber'
p79
I-1
sS'N'
p80
I5
sS'basinAmount'
p81
I3
sS'functionsList'
p82
(lp83
g0
(cNK_Network.BoolFunction
BoolFunction
p84
g2
Ntp85
Rp86
(dp87
S'valuesString'
p88
S'10111010111000110111000001001100'
p89
sg78
I5
sbag0
(g84
g2
Ntp90
Rp91
(dp92
g88
S'10001101010000001110101011000111'
p93
sg78
I5
sbag0
(g84
g2
Ntp94
Rp95
(dp96
g88
S'00111011100100010000010100110110'
p97
sg78
I5
sbag0
(g84
g2
Ntp98
Rp99
(dp100
g88
S'00000011101100101000001100010101'
p101
sg78
I5
sbag0
(g84
g2
Ntp102
Rp103
(dp104
g88
S'01101100010000100010011011101111'
p105
sg78
I5
sbasS'expectedReturnTime'
p106
F3.4074074074074074
sS'stateList'
p107
(lp108
g0
(cNK_Network.State
State
p109
g2
Ntp110
Rp111
(dp112
S'firstAttractorStateNumber'
p113
I15
sS'weight'
p114
I0
sS'inBasin'
p115
I01
sS'basinNumber'
p116
I1
sS'inAttractor'
p117
I00
sS'stateNumber'
p118
I0
sS'dimension'
p119
I5
sbag0
(g109
g2
Ntp120
Rp121
(dp122
g113
Nsg114
I3
sg115
I00
sg116
I2
sg117
I01
sg118
I1
sg119
I5
sbag0
(g109
g2
Ntp123
Rp124
(dp125
g113
I20
sg114
I0
sg115
I01
sg116
I3
sg117
I00
sg118
I2
sg119
I5
sbag0
(g109
g2
Ntp126
Rp127
(dp128
g113
Nsg114
I0
sg115
I00
sg116
I3
sg117
I01
sg118
I3
sg119
I5
sbag0
(g109
g2
Ntp129
Rp130
(dp131
g113
I20
sg114
I0
sg115
I01
sg116
I3
sg117
I00
sg118
I4
sg119
I5
sbag0
(g109
g2
Ntp132
Rp133
(dp134
g113
I15
sg114
I0
sg115
I01
sg116
I1
sg117
I00
sg118
I5
sg119
I5
sbag0
(g109
g2
Ntp135
Rp136
(dp137
g113
I29
sg114
I0
sg115
I01
sg116
I3
sg117
I00
sg118
I6
sg119
I5
sbag0
(g109
g2
Ntp138
Rp139
(dp140
g113
I15
sg114
I0
sg115
I01
sg116
I1
sg117
I00
sg118
I7
sg119
I5
sbag0
(g109
g2
Ntp141
Rp142
(dp143
g113
I15
sg114
I0
sg115
I01
sg116
I1
sg117
I00
sg118
I8
sg119
I5
sbag0
(g109
g2
Ntp144
Rp145
(dp146
g113
I15
sg114
I0
sg115
I01
sg116
I1
sg117
I00
sg118
I9
sg119
I5
sbag0
(g109
g2
Ntp147
Rp148
(dp149
g113
I15
sg114
I0
sg115
I01
sg116
I1
sg117
I00
sg118
I10
sg119
I5
sbag0
(g109
g2
Ntp150
Rp151
(dp152
g113
I1
sg114
I0
sg115
I01
sg116
I2
sg117
I00
sg118
I11
sg119
I5
sbag0
(g109
g2
Ntp153
Rp154
(dp155
g113
I15
sg114
I0
sg115
I01
sg116
I1
sg117
I00
sg118
I12
sg119
I5
sbag0
(g109
g2
Ntp156
Rp157
(dp158
g113
I20
sg114
I0
sg115
I01
sg116
I3
sg117
I00
sg118
I13
sg119
I5
sbag0
(g109
g2
Ntp159
Rp160
(dp161
g113
I15
sg114
I0
sg115
I01
sg116
I1
sg117
I00
sg118
I14
sg119
I5
sbag0
(g109
g2
Ntp162
Rp163
(dp164
g113
Nsg114
I15
sg115
I00
sg116
I1
sg117
I01
sg118
I15
sg119
I5
sbag0
(g109
g2
Ntp165
Rp166
(dp167
g113
I15
sg114
I0
sg115
I01
sg116
I1
sg117
I00
sg118
I16
sg119
I5
sbag0
(g109
g2
Ntp168
Rp169
(dp170
g113
I15
sg114
I0
sg115
I01
sg116
I1
sg117
I00
sg118
I17
sg119
I5
sbag0
(g109
g2
Ntp171
Rp172
(dp173
g113
I15
sg114
I0
sg115
I01
sg116
I1
sg117
I00
sg118
I18
sg119
I5
sbag0
(g109
g2
Ntp174
Rp175
(dp176
g113
I20
sg114
I0
sg115
I01
sg116
I3
sg117
I00
sg118
I19
sg119
I5
sbag0
(g109
g2
Ntp177
Rp178
(dp179
g113
Nsg114
I8
sg115
I00
sg116
I3
sg117
I01
sg118
I20
sg119
I5
sbag0
(g109
g2
Ntp180
Rp181
(dp182
g113
I20
sg114
I0
sg115
I01
sg116
I3
sg117
I00
sg118
I21
sg119
I5
sbag0
(g109
g2
Ntp183
Rp184
(dp185
g113
I1
sg114
I0
sg115
I01
sg116
I2
sg117
I00
sg118
I22
sg119
I5
sbag0
(g109
g2
Ntp186
Rp187
(dp188
g113
I20
sg114
I0
sg115
I01
sg116
I3
sg117
I00
sg118
I23
sg119
I5
sbag0
(g109
g2
Ntp189
Rp190
(dp191
g113
I15
sg114
I0
sg115
I01
sg116
I1
sg117
I00
sg118
I24
sg119
I5
sbag0
(g109
g2
Ntp192
Rp193
(dp194
g113
I15
sg114
I0
sg115
I01
sg116
I1
sg117
I00
sg118
I25
sg119
I5
sbag0
(g109
g2
Ntp195
Rp196
(dp197
g113
I20
sg114
I0
sg115
I01
sg116
I3
sg117
I00
sg118
I26
sg119
I5
sbag0
(g109
g2
Ntp198
Rp199
(dp200
g113
I15
sg114
I0
sg115
I01
sg116
I1
sg117
I00
sg118
I27
sg119
I5
sbag0
(g109
g2
Ntp201
Rp202
(dp203
g113
I15
sg114
I0
sg115
I01
sg116
I1
sg117
I00
sg118
I28
sg119
I5
sbag0
(g109
g2
Ntp204
Rp205
(dp206
g113
Nsg114
I1
sg115
I00
sg116
I3
sg117
I01
sg118
I29
sg119
I5
sbag0
(g109
g2
Ntp207
Rp208
(dp209
g113
I20
sg114
I0
sg115
I01
sg116
I3
sg117
I00
sg118
I30
sg119
I5
sbag0
(g109
g2
Ntp210
Rp211
(dp212
g113
I1
sg114
I0
sg115
I01
sg116
I2
sg117
I00
sg118
I31
sg119
I5
sbasS'linksList'
p213
(lp214
(lp215
I4
aI1
aI2
aI3
aI0
aa(lp216
I3
aI4
aI1
aI0
aI2
aa(lp217
I1
aI0
aI2
aI3
aI4
aa(lp218
I3
aI0
aI4
aI2
aI1
aa(lp219
I3
aI2
aI1
aI4
aI0
aasb.