ccopy_reg
_reconstructor
p0
(cNK_Network.Automata
NK_Automata
p1
c__builtin__
object
p2
Ntp3
Rp4
(dp5
S'stability'
p6
F0.78125
sS'stateSpan'
p7
(dp8
I0
I7
sI1
I7
sI2
I3
sI3
I6
sI4
I4
sI5
I0
sI6
I5
sI7
I1
ssS'attractorDict'
p9
(dp10
I1
(lp11
I2
aI5
asI2
(lp12
I1
aI0
assS'K'
p13
I3
sS'ordinalNumber'
p14
I-1
sS'N'
p15
I3
sS'basinAmount'
p16
I2
sS'functionsList'
p17
(lp18
g0
(cNK_Network.BoolFunction
BoolFunction
p19
g2
Ntp20
Rp21
(dp22
S'valuesString'
p23
S'10111100'
p24
sg13
I3
sbag0
(g19
g2
Ntp25
Rp26
(dp27
g23
S'10101010'
p28
sg13
I3
sbag0
(g19
g2
Ntp29
Rp30
(dp31
g23
S'10111001'
p32
sg13
I3
sbasS'expectedReturnTime'
p33
F3.0
sS'stateList'
p34
(lp35
g0
(cNK_Network.State
State
p36
g2
Ntp37
Rp38
(dp39
S'firstAttractorStateNumber'
p40
I7
sS'weight'
p41
I0
sS'inBasin'
p42
I01
sS'basinNumber'
p43
I1
sS'inAttractor'
p44
I00
sS'stateNumber'
p45
I0
sS'dimension'
p46
I3
sbag0
(g36
g2
Ntp47
Rp48
(dp49
g40
Nsg41
I0
sg42
I00
sg43
I1
sg44
I01
sg45
I1
sg46
I3
sbag0
(g36
g2
Ntp50
Rp51
(dp52
g40
I7
sg41
I0
sg42
I01
sg43
I1
sg44
I00
sg45
I2
sg46
I3
sbag0
(g36
g2
Ntp53
Rp54
(dp55
g40
I7
sg41
I0
sg42
I01
sg43
I1
sg44
I00
sg45
I3
sg46
I3
sbag0
(g36
g2
Ntp56
Rp57
(dp58
g40
Nsg41
I0
sg42
I00
sg43
I2
sg44
I01
sg45
I4
sg46
I3
sbag0
(g36
g2
Ntp59
Rp60
(dp61
g40
I7
sg41
I0
sg42
I01
sg43
I1
sg44
I00
sg45
I5
sg46
I3
sbag0
(g36
g2
Ntp62
Rp63
(dp64
g40
I7
sg41
I0
sg42
I01
sg43
I1
sg44
I00
sg45
I6
sg46
I3
sbag0
(g36
g2
Ntp65
Rp66
(dp67
g40
Nsg41
I5
sg42
I00
sg43
I1
sg44
I01
sg45
I7
sg46
I3
sbasS'linksList'
p68
(lp69
(lp70
I2
aI0
aI1
aa(lp71
I1
aI2
aI0
aa(lp72
I2
aI1
aI0
aasb.