ccopy_reg
_reconstructor
p0
(cNK_Network.Automata
NK_Automata
p1
c__builtin__
object
p2
Ntp3
Rp4
(dp5
S'stability'
p6
F0.939453125
sS'stateSpan'
p7
(dp8
I0
I13
sI1
I9
sI2
I10
sI3
I3
sI4
I17
sI5
I17
sI6
I26
sI7
I30
sI8
I25
sI9
I28
sI10
I15
sI11
I25
sI12
I10
sI13
I24
sI14
I9
sI15
I9
sI16
I22
sI17
I15
sI18
I22
sI19
I0
sI20
I27
sI21
I25
sI22
I20
sI23
I6
sI24
I21
sI25
I9
sI26
I8
sI27
I23
sI28
I27
sI29
I1
sI30
I12
sI31
I6
ssS'attractorDict'
p9
(dp10
I1
(lp11
I8
aI23
asI2
(lp12
I1
aI0
assS'K'
p13
I5
sS'ordinalNumber'
p14
I-1
sS'N'
p15
I5
sS'basinAmount'
p16
I2
sS'functionsList'
p17
(lp18
g0
(cNK_Network.BoolFunction
BoolFunction
p19
g2
Ntp20
Rp21
(dp22
S'valuesString'
p23
S'01110100110111000010001111101000'
p24
sg13
I5
sbag0
(g19
g2
Ntp25
Rp26
(dp27
g23
S'10011100101101001101111111101100'
p28
sg13
I5
sbag0
(g19
g2
Ntp29
Rp30
(dp31
g23
S'10110000011000110110000000011011'
p32
sg13
I5
sbag0
(g19
g2
Ntp33
Rp34
(dp35
g23
S'01011110011000100101100100000101'
p36
sg13
I5
sbag0
(g19
g2
Ntp37
Rp38
(dp39
g23
S'11111000001011110111111100000010'
p40
sg13
I5
sbasS'expectedReturnTime'
p41
F2.4347826086956523
sS'stateList'
p42
(lp43
g0
(cNK_Network.State
State
p44
g2
Ntp45
Rp46
(dp47
S'firstAttractorStateNumber'
p48
I25
sS'weight'
p49
I0
sS'inBasin'
p50
I01
sS'basinNumber'
p51
I1
sS'inAttractor'
p52
I00
sS'stateNumber'
p53
I0
sS'dimension'
p54
I5
sbag0
(g44
g2
Ntp55
Rp56
(dp57
g48
I9
sg49
I0
sg50
I01
sg51
I1
sg52
I00
sg53
I1
sg54
I5
sbag0
(g44
g2
Ntp58
Rp59
(dp60
g48
I9
sg49
I0
sg50
I01
sg51
I1
sg52
I00
sg53
I2
sg54
I5
sbag0
(g44
g2
Ntp61
Rp62
(dp63
g48
Nsg49
I0
sg50
I00
sg51
I2
sg52
I01
sg53
I3
sg54
I5
sbag0
(g44
g2
Ntp64
Rp65
(dp66
g48
I9
sg49
I0
sg50
I01
sg51
I1
sg52
I00
sg53
I4
sg54
I5
sbag0
(g44
g2
Ntp67
Rp68
(dp69
g48
I9
sg49
I0
sg50
I01
sg51
I1
sg52
I00
sg53
I5
sg54
I5
sbag0
(g44
g2
Ntp70
Rp71
(dp72
g48
Nsg49
I1
sg50
I00
sg51
I1
sg52
I01
sg53
I6
sg54
I5
sbag0
(g44
g2
Ntp73
Rp74
(dp75
g48
I9
sg49
I0
sg50
I01
sg51
I1
sg52
I00
sg53
I7
sg54
I5
sbag0
(g44
g2
Ntp76
Rp77
(dp78
g48
Nsg49
I0
sg50
I00
sg51
I1
sg52
I01
sg53
I8
sg54
I5
sbag0
(g44
g2
Ntp79
Rp80
(dp81
g48
Nsg49
I12
sg50
I00
sg51
I1
sg52
I01
sg53
I9
sg54
I5
sbag0
(g44
g2
Ntp82
Rp83
(dp84
g48
I9
sg49
I0
sg50
I01
sg51
I1
sg52
I00
sg53
I10
sg54
I5
sbag0
(g44
g2
Ntp85
Rp86
(dp87
g48
I25
sg49
I0
sg50
I01
sg51
I1
sg52
I00
sg53
I11
sg54
I5
sbag0
(g44
g2
Ntp88
Rp89
(dp90
g48
I9
sg49
I0
sg50
I01
sg51
I1
sg52
I00
sg53
I12
sg54
I5
sbag0
(g44
g2
Ntp91
Rp92
(dp93
g48
I25
sg49
I0
sg50
I01
sg51
I1
sg52
I00
sg53
I13
sg54
I5
sbag0
(g44
g2
Ntp94
Rp95
(dp96
g48
I9
sg49
I0
sg50
I01
sg51
I1
sg52
I00
sg53
I14
sg54
I5
sbag0
(g44
g2
Ntp97
Rp98
(dp99
g48
I9
sg49
I0
sg50
I01
sg51
I1
sg52
I00
sg53
I15
sg54
I5
sbag0
(g44
g2
Ntp100
Rp101
(dp102
g48
I27
sg49
I0
sg50
I01
sg51
I1
sg52
I00
sg53
I16
sg54
I5
sbag0
(g44
g2
Ntp103
Rp104
(dp105
g48
I9
sg49
I0
sg50
I01
sg51
I1
sg52
I00
sg53
I17
sg54
I5
sbag0
(g44
g2
Ntp106
Rp107
(dp108
g48
I27
sg49
I0
sg50
I01
sg51
I1
sg52
I00
sg53
I18
sg54
I5
sbag0
(g44
g2
Ntp109
Rp110
(dp111
g48
I25
sg49
I0
sg50
I01
sg51
I1
sg52
I00
sg53
I19
sg54
I5
sbag0
(g44
g2
Ntp112
Rp113
(dp114
g48
I27
sg49
I0
sg50
I01
sg51
I1
sg52
I00
sg53
I20
sg54
I5
sbag0
(g44
g2
Ntp115
Rp116
(dp117
g48
I25
sg49
I0
sg50
I01
sg51
I1
sg52
I00
sg53
I21
sg54
I5
sbag0
(g44
g2
Ntp118
Rp119
(dp120
g48
I27
sg49
I0
sg50
I01
sg51
I1
sg52
I00
sg53
I22
sg54
I5
sbag0
(g44
g2
Ntp121
Rp122
(dp123
g48
Nsg49
I0
sg50
I00
sg51
I1
sg52
I01
sg53
I23
sg54
I5
sbag0
(g44
g2
Ntp124
Rp125
(dp126
g48
I25
sg49
I0
sg50
I01
sg51
I1
sg52
I00
sg53
I24
sg54
I5
sbag0
(g44
g2
Ntp127
Rp128
(dp129
g48
Nsg49
I6
sg50
I00
sg51
I1
sg52
I01
sg53
I25
sg54
I5
sbag0
(g44
g2
Ntp130
Rp131
(dp132
g48
Nsg49
I0
sg50
I00
sg51
I1
sg52
I01
sg53
I26
sg54
I5
sbag0
(g44
g2
Ntp133
Rp134
(dp135
g48
Nsg49
I4
sg50
I00
sg51
I1
sg52
I01
sg53
I27
sg54
I5
sbag0
(g44
g2
Ntp136
Rp137
(dp138
g48
Nsg49
I0
sg50
I00
sg51
I1
sg52
I01
sg53
I28
sg54
I5
sbag0
(g44
g2
Ntp139
Rp140
(dp141
g48
I9
sg49
I0
sg50
I01
sg51
I1
sg52
I00
sg53
I29
sg54
I5
sbag0
(g44
g2
Ntp142
Rp143
(dp144
g48
I9
sg49
I0
sg50
I01
sg51
I1
sg52
I00
sg53
I30
sg54
I5
sbag0
(g44
g2
Ntp145
Rp146
(dp147
g48
I6
sg49
I0
sg50
I01
sg51
I1
sg52
I00
sg53
I31
sg54
I5
sbasS'linksList'
p148
(lp149
(lp150
I4
aI2
aI3
aI1
aI0
aa(lp151
I1
aI4
aI3
aI0
aI2
aa(lp152
I4
aI3
aI2
aI0
aI1
aa(lp153
I4
aI1
aI0
aI2
aI3
aa(lp154
I0
aI3
aI1
aI4
aI2
aasb.