ccopy_reg
_reconstructor
p0
(cNK_Network.Automata
NK_Automata
p1
c__builtin__
object
p2
Ntp3
Rp4
(dp5
S'stability'
p6
F0.6015625
sS'stateSpan'
p7
(dp8
I0
I15
sI1
I7
sI2
I4
sI3
I4
sI4
I9
sI5
I5
sI6
I2
sI7
I6
sI8
I10
sI9
I14
sI10
I2
sI11
I15
sI12
I10
sI13
I10
sI14
I2
sI15
I11
ssS'attractorDict'
p9
(dp10
I1
(lp11
I2
aI1
asI2
(lp12
I4
aI8
asI3
(lp13
I1
aI0
assS'K'
p14
I3
sS'ordinalNumber'
p15
I-1
sS'N'
p16
I4
sS'basinAmount'
p17
I3
sS'functionsList'
p18
(lp19
g0
(cNK_Network.BoolFunction
BoolFunction
p20
g2
Ntp21
Rp22
(dp23
S'valuesString'
p24
S'10100011'
p25
sg14
I3
sbag0
(g20
g2
Ntp26
Rp27
(dp28
g24
S'10001110'
p29
sg14
I3
sbag0
(g20
g2
Ntp30
Rp31
(dp32
g24
S'10110111'
p33
sg14
I3
sbag0
(g20
g2
Ntp34
Rp35
(dp36
g24
S'10001001'
p37
sg14
I3
sbasS'expectedReturnTime'
p38
F1.6666666666666667
sS'stateList'
p39
(lp40
g0
(cNK_Network.State
State
p41
g2
Ntp42
Rp43
(dp44
S'firstAttractorStateNumber'
p45
I15
sS'weight'
p46
I0
sS'inBasin'
p47
I01
sS'basinNumber'
p48
I1
sS'inAttractor'
p49
I00
sS'stateNumber'
p50
I0
sS'dimension'
p51
I4
sbag0
(g41
g2
Ntp52
Rp53
(dp54
g45
I2
sg46
I0
sg47
I01
sg48
I2
sg49
I00
sg50
I1
sg51
I4
sbag0
(g41
g2
Ntp55
Rp56
(dp57
g45
Nsg46
I7
sg47
I00
sg48
I2
sg49
I01
sg50
I2
sg51
I4
sbag0
(g41
g2
Ntp58
Rp59
(dp60
g45
I4
sg46
I0
sg47
I01
sg48
I2
sg49
I00
sg50
I3
sg51
I4
sbag0
(g41
g2
Ntp61
Rp62
(dp63
g45
Nsg46
I1
sg47
I00
sg48
I2
sg49
I01
sg50
I4
sg51
I4
sbag0
(g41
g2
Ntp64
Rp65
(dp66
g45
Nsg46
I0
sg47
I00
sg48
I3
sg49
I01
sg50
I5
sg51
I4
sbag0
(g41
g2
Ntp67
Rp68
(dp69
g45
I2
sg46
I0
sg47
I01
sg48
I2
sg49
I00
sg50
I6
sg51
I4
sbag0
(g41
g2
Ntp70
Rp71
(dp72
g45
I2
sg46
I0
sg47
I01
sg48
I2
sg49
I00
sg50
I7
sg51
I4
sbag0
(g41
g2
Ntp73
Rp74
(dp75
g45
I2
sg46
I0
sg47
I01
sg48
I2
sg49
I00
sg50
I8
sg51
I4
sbag0
(g41
g2
Ntp76
Rp77
(dp78
g45
Nsg46
I0
sg47
I00
sg48
I2
sg49
I01
sg50
I9
sg51
I4
sbag0
(g41
g2
Ntp79
Rp80
(dp81
g45
I2
sg46
I0
sg47
I01
sg48
I2
sg49
I00
sg50
I10
sg51
I4
sbag0
(g41
g2
Ntp82
Rp83
(dp84
g45
Nsg46
I0
sg47
I00
sg48
I1
sg49
I01
sg50
I11
sg51
I4
sbag0
(g41
g2
Ntp85
Rp86
(dp87
g45
I2
sg46
I0
sg47
I01
sg48
I2
sg49
I00
sg50
I12
sg51
I4
sbag0
(g41
g2
Ntp88
Rp89
(dp90
g45
I2
sg46
I0
sg47
I01
sg48
I2
sg49
I00
sg50
I13
sg51
I4
sbag0
(g41
g2
Ntp91
Rp92
(dp93
g45
Nsg46
I0
sg47
I00
sg48
I2
sg49
I01
sg50
I14
sg51
I4
sbag0
(g41
g2
Ntp94
Rp95
(dp96
g45
Nsg46
I1
sg47
I00
sg48
I1
sg49
I01
sg50
I15
sg51
I4
sbasS'linksList'
p97
(lp98
(lp99
I3
aI0
aI2
aa(lp100
I3
aI1
aI0
aa(lp101
I2
aI0
aI1
aa(lp102
I3
aI2
aI0
aasb.