ccopy_reg
_reconstructor
p0
(cNK_Network.Automata
NK_Automata
p1
c__builtin__
object
p2
Ntp3
Rp4
(dp5
S'stability'
p6
F0.49951171875
sS'stateSpan'
p7
(dp8
S'110000'
p9
S'001110'
p10
sS'110001'
p11
S'010001'
p12
sS'110101'
p13
S'010111'
p14
sS'110100'
p15
S'111110'
p16
sS'010100'
p17
S'010100'
p18
sS'010101'
p19
S'001111'
p20
sS'001100'
p21
S'001010'
p22
sS'001101'
p23
S'110111'
p24
sS'011110'
p25
S'000111'
p26
sS'011111'
p27
S'001110'
p28
sS'001001'
p29
S'101000'
p30
sS'001000'
p31
S'010010'
p32
sS'011011'
p33
S'100111'
p34
sS'011010'
p35
S'111111'
p36
sS'000110'
p37
S'000010'
p38
sS'000111'
p39
S'000111'
p40
sS'000011'
p41
S'011110'
p42
sS'000010'
p43
S'001001'
p44
sS'100100'
p45
S'010000'
p46
sS'100101'
p47
S'000000'
p48
sS'111100'
p49
S'110101'
p50
sS'111101'
p51
S'101100'
p52
sS'100010'
p53
S'110010'
p54
sS'100011'
p55
S'111011'
p56
sS'101110'
p57
S'011110'
p58
sS'101111'
p59
S'111111'
p60
sS'111001'
p61
S'010110'
p62
sS'111000'
p63
S'011110'
p64
sS'101011'
p65
S'001010'
p66
sS'101010'
p67
S'110011'
p68
sS'110011'
p69
S'100101'
p70
sS'110010'
p71
S'101000'
p72
sS'010010'
p73
S'000001'
p74
sS'010011'
p75
S'110110'
p76
sS'010111'
p77
S'011111'
p78
sS'010110'
p79
S'001001'
p80
sS'110110'
p81
S'011001'
p82
sS'110111'
p83
S'010111'
p84
sS'011000'
p85
S'001100'
p86
sS'011001'
p87
S'010010'
p88
sS'001111'
p89
S'100100'
p90
sS'001110'
p91
S'111111'
p92
sS'011101'
p93
S'111111'
p94
sS'011100'
p95
S'000010'
p96
sS'001010'
p97
S'011100'
p98
sS'001011'
p99
S'100000'
p100
sS'101101'
p101
S'010110'
p102
sS'000000'
p103
S'010111'
p104
sS'000001'
p105
S'001111'
p106
sS'100111'
p107
S'101100'
p108
sS'100110'
p109
S'000011'
p110
sS'000101'
p111
S'110100'
p112
sS'000100'
p113
S'110010'
p114
sS'111111'
p115
S'000101'
p116
sS'111110'
p117
S'111110'
p118
sS'100001'
p119
S'000011'
p120
sS'100000'
p121
S'101100'
p122
sS'010001'
p123
S'010010'
p124
sS'010000'
p125
S'100110'
p126
sS'101100'
p127
S'001110'
p128
sS'111010'
p129
S'110001'
p130
sS'111011'
p131
S'000111'
p132
sS'101000'
p133
S'010001'
p134
sS'101001'
p135
S'001011'
p136
ssS'attractorDict'
p137
(dp138
I1
(lp139
I1
aI25
asI2
(lp140
I1
aI36
asI3
(lp141
I1
aI0
assS'K'
p142
I6
sS'ordinalNumber'
p143
I-1
sS'N'
p144
I6
sS'basinAmount'
p145
I3
sS'functionsList'
p146
(lp147
g0
(cNK_Network.BoolFunction
BoolFunction
p148
g2
Ntp149
Rp150
(dp151
S'valuesString'
p152
S'0000001110011011110101000000010110010101000000100101010010110010'
p153
sg142
I6
sbag0
(g148
g2
Ntp154
Rp155
(dp156
g152
S'1000101100101111010101011110000011110001000110111001111001010010'
p157
sg142
I6
sbag0
(g148
g2
Ntp158
Rp159
(dp160
g152
S'0110010000111100000001101100001110110100100110000001111011010110'
p161
sg142
I6
sbag0
(g148
g2
Ntp162
Rp163
(dp164
g152
S'1101000011010000010011110111001110111111000101110011011101110111'
p165
sg142
I6
sbag0
(g148
g2
Ntp166
Rp167
(dp168
g152
S'1010101111010110110100111011111001011111001000111101100110111110'
p169
sg142
I6
sbag0
(g148
g2
Ntp170
Rp171
(dp172
g152
S'1011100000001111000100011011100100010111001101010011110001000011'
p173
sg142
I6
sbasS'expectedReturnTime'
p174
F7.557377049180328
sS'stateList'
p175
(lp176
g0
(cNK_Network.State
State
p177
g2
Ntp178
Rp179
(dp180
S'firstAttractorStateNumber'
p181
I62
sS'weight'
p182
I0
sS'inBasin'
p183
I01
sS'basinNumber'
p184
I1
sS'inAttractor'
p185
I00
sS'stateNumber'
p186
I0
sS'dimension'
p187
I6
sbag0
(g177
g2
Ntp188
Rp189
(dp190
g181
I7
sg182
I0
sg183
I01
sg184
I2
sg185
I00
sg186
I1
sg187
I6
sbag0
(g177
g2
Ntp191
Rp192
(dp193
g181
I7
sg182
I0
sg183
I01
sg184
I2
sg185
I00
sg186
I2
sg187
I6
sbag0
(g177
g2
Ntp194
Rp195
(dp196
g181
I7
sg182
I0
sg183
I01
sg184
I2
sg185
I00
sg186
I3
sg187
I6
sbag0
(g177
g2
Ntp197
Rp198
(dp199
g181
I7
sg182
I0
sg183
I01
sg184
I2
sg185
I00
sg186
I4
sg187
I6
sbag0
(g177
g2
Ntp200
Rp201
(dp202
g181
I62
sg182
I0
sg183
I01
sg184
I1
sg185
I00
sg186
I5
sg187
I6
sbag0
(g177
g2
Ntp203
Rp204
(dp205
g181
I7
sg182
I0
sg183
I01
sg184
I2
sg185
I00
sg186
I6
sg187
I6
sbag0
(g177
g2
Ntp206
Rp207
(dp208
g181
Nsg182
I36
sg183
I00
sg184
I2
sg185
I01
sg186
I7
sg187
I6
sbag0
(g177
g2
Ntp209
Rp210
(dp211
g181
I7
sg182
I0
sg183
I01
sg184
I2
sg185
I00
sg186
I8
sg187
I6
sbag0
(g177
g2
Ntp212
Rp213
(dp214
g181
I7
sg182
I0
sg183
I01
sg184
I2
sg185
I00
sg186
I9
sg187
I6
sbag0
(g177
g2
Ntp215
Rp216
(dp217
g181
I7
sg182
I0
sg183
I01
sg184
I2
sg185
I00
sg186
I10
sg187
I6
sbag0
(g177
g2
Ntp218
Rp219
(dp220
g181
I62
sg182
I0
sg183
I01
sg184
I1
sg185
I00
sg186
I11
sg187
I6
sbag0
(g177
g2
Ntp221
Rp222
(dp223
g181
I7
sg182
I0
sg183
I01
sg184
I2
sg185
I00
sg186
I12
sg187
I6
sbag0
(g177
g2
Ntp224
Rp225
(dp226
g181
I62
sg182
I0
sg183
I01
sg184
I1
sg185
I00
sg186
I13
sg187
I6
sbag0
(g177
g2
Ntp227
Rp228
(dp229
g181
I62
sg182
I0
sg183
I01
sg184
I1
sg185
I00
sg186
I14
sg187
I6
sbag0
(g177
g2
Ntp230
Rp231
(dp232
g181
I7
sg182
I0
sg183
I01
sg184
I2
sg185
I00
sg186
I15
sg187
I6
sbag0
(g177
g2
Ntp233
Rp234
(dp235
g181
I7
sg182
I0
sg183
I01
sg184
I2
sg185
I00
sg186
I16
sg187
I6
sbag0
(g177
g2
Ntp236
Rp237
(dp238
g181
I7
sg182
I0
sg183
I01
sg184
I2
sg185
I00
sg186
I17
sg187
I6
sbag0
(g177
g2
Ntp239
Rp240
(dp241
g181
I7
sg182
I0
sg183
I01
sg184
I2
sg185
I00
sg186
I18
sg187
I6
sbag0
(g177
g2
Ntp242
Rp243
(dp244
g181
I7
sg182
I0
sg183
I01
sg184
I2
sg185
I00
sg186
I19
sg187
I6
sbag0
(g177
g2
Ntp245
Rp246
(dp247
g181
Nsg182
I0
sg183
I00
sg184
I3
sg185
I01
sg186
I20
sg187
I6
sbag0
(g177
g2
Ntp248
Rp249
(dp250
g181
I7
sg182
I0
sg183
I01
sg184
I2
sg185
I00
sg186
I21
sg187
I6
sbag0
(g177
g2
Ntp251
Rp252
(dp253
g181
I7
sg182
I0
sg183
I01
sg184
I2
sg185
I00
sg186
I22
sg187
I6
sbag0
(g177
g2
Ntp254
Rp255
(dp256
g181
I62
sg182
I0
sg183
I01
sg184
I1
sg185
I00
sg186
I23
sg187
I6
sbag0
(g177
g2
Ntp257
Rp258
(dp259
g181
I7
sg182
I0
sg183
I01
sg184
I2
sg185
I00
sg186
I24
sg187
I6
sbag0
(g177
g2
Ntp260
Rp261
(dp262
g181
I7
sg182
I0
sg183
I01
sg184
I2
sg185
I00
sg186
I25
sg187
I6
sbag0
(g177
g2
Ntp263
Rp264
(dp265
g181
I62
sg182
I0
sg183
I01
sg184
I1
sg185
I00
sg186
I26
sg187
I6
sbag0
(g177
g2
Ntp266
Rp267
(dp268
g181
I62
sg182
I0
sg183
I01
sg184
I1
sg185
I00
sg186
I27
sg187
I6
sbag0
(g177
g2
Ntp269
Rp270
(dp271
g181
I7
sg182
I0
sg183
I01
sg184
I2
sg185
I00
sg186
I28
sg187
I6
sbag0
(g177
g2
Ntp272
Rp273
(dp274
g181
I62
sg182
I0
sg183
I01
sg184
I1
sg185
I00
sg186
I29
sg187
I6
sbag0
(g177
g2
Ntp275
Rp276
(dp277
g181
I7
sg182
I0
sg183
I01
sg184
I2
sg185
I00
sg186
I30
sg187
I6
sbag0
(g177
g2
Ntp278
Rp279
(dp280
g181
I62
sg182
I0
sg183
I01
sg184
I1
sg185
I00
sg186
I31
sg187
I6
sbag0
(g177
g2
Ntp281
Rp282
(dp283
g181
I62
sg182
I0
sg183
I01
sg184
I1
sg185
I00
sg186
I32
sg187
I6
sbag0
(g177
g2
Ntp284
Rp285
(dp286
g181
I7
sg182
I0
sg183
I01
sg184
I2
sg185
I00
sg186
I33
sg187
I6
sbag0
(g177
g2
Ntp287
Rp288
(dp289
g181
I7
sg182
I0
sg183
I01
sg184
I2
sg185
I00
sg186
I34
sg187
I6
sbag0
(g177
g2
Ntp290
Rp291
(dp292
g181
I7
sg182
I0
sg183
I01
sg184
I2
sg185
I00
sg186
I35
sg187
I6
sbag0
(g177
g2
Ntp293
Rp294
(dp295
g181
I7
sg182
I0
sg183
I01
sg184
I2
sg185
I00
sg186
I36
sg187
I6
sbag0
(g177
g2
Ntp296
Rp297
(dp298
g181
I62
sg182
I0
sg183
I01
sg184
I1
sg185
I00
sg186
I37
sg187
I6
sbag0
(g177
g2
Ntp299
Rp300
(dp301
g181
I7
sg182
I0
sg183
I01
sg184
I2
sg185
I00
sg186
I38
sg187
I6
sbag0
(g177
g2
Ntp302
Rp303
(dp304
g181
I62
sg182
I0
sg183
I01
sg184
I1
sg185
I00
sg186
I39
sg187
I6
sbag0
(g177
g2
Ntp305
Rp306
(dp307
g181
I7
sg182
I0
sg183
I01
sg184
I2
sg185
I00
sg186
I40
sg187
I6
sbag0
(g177
g2
Ntp308
Rp309
(dp310
g181
I62
sg182
I0
sg183
I01
sg184
I1
sg185
I00
sg186
I41
sg187
I6
sbag0
(g177
g2
Ntp311
Rp312
(dp313
g181
I62
sg182
I0
sg183
I01
sg184
I1
sg185
I00
sg186
I42
sg187
I6
sbag0
(g177
g2
Ntp314
Rp315
(dp316
g181
I7
sg182
I0
sg183
I01
sg184
I2
sg185
I00
sg186
I43
sg187
I6
sbag0
(g177
g2
Ntp317
Rp318
(dp319
g181
I62
sg182
I0
sg183
I01
sg184
I1
sg185
I00
sg186
I44
sg187
I6
sbag0
(g177
g2
Ntp320
Rp321
(dp322
g181
I7
sg182
I0
sg183
I01
sg184
I2
sg185
I00
sg186
I45
sg187
I6
sbag0
(g177
g2
Ntp323
Rp324
(dp325
g181
I7
sg182
I0
sg183
I01
sg184
I2
sg185
I00
sg186
I46
sg187
I6
sbag0
(g177
g2
Ntp326
Rp327
(dp328
g181
I62
sg182
I0
sg183
I01
sg184
I1
sg185
I00
sg186
I47
sg187
I6
sbag0
(g177
g2
Ntp329
Rp330
(dp331
g181
I62
sg182
I0
sg183
I01
sg184
I1
sg185
I00
sg186
I48
sg187
I6
sbag0
(g177
g2
Ntp332
Rp333
(dp334
g181
I7
sg182
I0
sg183
I01
sg184
I2
sg185
I00
sg186
I49
sg187
I6
sbag0
(g177
g2
Ntp335
Rp336
(dp337
g181
I7
sg182
I0
sg183
I01
sg184
I2
sg185
I00
sg186
I50
sg187
I6
sbag0
(g177
g2
Ntp338
Rp339
(dp340
g181
I62
sg182
I0
sg183
I01
sg184
I1
sg185
I00
sg186
I51
sg187
I6
sbag0
(g177
g2
Ntp341
Rp342
(dp343
g181
I62
sg182
I0
sg183
I01
sg184
I1
sg185
I00
sg186
I52
sg187
I6
sbag0
(g177
g2
Ntp344
Rp345
(dp346
g181
I62
sg182
I0
sg183
I01
sg184
I1
sg185
I00
sg186
I53
sg187
I6
sbag0
(g177
g2
Ntp347
Rp348
(dp349
g181
I7
sg182
I0
sg183
I01
sg184
I2
sg185
I00
sg186
I54
sg187
I6
sbag0
(g177
g2
Ntp350
Rp351
(dp352
g181
I62
sg182
I0
sg183
I01
sg184
I1
sg185
I00
sg186
I55
sg187
I6
sbag0
(g177
g2
Ntp353
Rp354
(dp355
g181
I7
sg182
I0
sg183
I01
sg184
I2
sg185
I00
sg186
I56
sg187
I6
sbag0
(g177
g2
Ntp356
Rp357
(dp358
g181
I7
sg182
I0
sg183
I01
sg184
I2
sg185
I00
sg186
I57
sg187
I6
sbag0
(g177
g2
Ntp359
Rp360
(dp361
g181
I7
sg182
I0
sg183
I01
sg184
I2
sg185
I00
sg186
I58
sg187
I6
sbag0
(g177
g2
Ntp362
Rp363
(dp364
g181
I7
sg182
I0
sg183
I01
sg184
I2
sg185
I00
sg186
I59
sg187
I6
sbag0
(g177
g2
Ntp365
Rp366
(dp367
g181
I62
sg182
I0
sg183
I01
sg184
I1
sg185
I00
sg186
I60
sg187
I6
sbag0
(g177
g2
Ntp368
Rp369
(dp370
g181
I62
sg182
I0
sg183
I01
sg184
I1
sg185
I00
sg186
I61
sg187
I6
sbag0
(g177
g2
Ntp371
Rp372
(dp373
g181
Nsg182
I25
sg183
I00
sg184
I1
sg185
I01
sg186
I62
sg187
I6
sbag0
(g177
g2
Ntp374
Rp375
(dp376
g181
I62
sg182
I0
sg183
I01
sg184
I1
sg185
I00
sg186
I63
sg187
I6
sbasS'linksList'
p377
(lp378
(lp379
I1
aI0
aI3
aI5
aI2
aI4
aa(lp380
I3
aI5
aI4
aI2
aI0
aI1
aa(lp381
I4
aI3
aI2
aI1
aI5
aI0
aa(lp382
I5
aI2
aI0
aI4
aI3
aI1
aa(lp383
I4
aI5
aI1
aI3
aI2
aI0
aa(lp384
I3
aI2
aI0
aI5
aI4
aI1
aasb.