ccopy_reg
_reconstructor
p0
(cNK_Network.Automata
NK_Automata
p1
c__builtin__
object
p2
Ntp3
Rp4
(dp5
S'stability'
p6
F0.78125
sS'stateSpan'
p7
(dp8
S'010'
p9
S'001'
p10
sS'011'
p11
S'111'
p12
sS'001'
p13
S'010'
p14
sS'000'
p15
S'001'
p16
sS'111'
p17
S'001'
p18
sS'110'
p19
S'010'
p20
sS'100'
p21
S'010'
p22
sS'101'
p23
S'101'
p24
ssS'attractorDict'
p25
(dp26
I1
(lp27
I2
aI5
asI2
(lp28
I1
aI0
assS'K'
p29
I3
sS'ordinalNumber'
p30
I-1
sS'N'
p31
I3
sS'basinAmount'
p32
I2
sS'functionsList'
p33
(lp34
g0
(cNK_Network.BoolFunction
BoolFunction
p35
g2
Ntp36
Rp37
(dp38
S'valuesString'
p39
S'00010010'
p40
sg29
I3
sbag0
(g35
g2
Ntp41
Rp42
(dp43
g39
S'01100110'
p44
sg29
I3
sbag0
(g35
g2
Ntp45
Rp46
(dp47
g39
S'10110101'
p48
sg29
I3
sbasS'expectedReturnTime'
p49
F1.2
sS'stateList'
p50
(lp51
g0
(cNK_Network.State
State
p52
g2
Ntp53
Rp54
(dp55
S'firstAttractorStateNumber'
p56
I1
sS'weight'
p57
I0
sS'inBasin'
p58
I01
sS'basinNumber'
p59
I1
sS'inAttractor'
p60
I00
sS'stateNumber'
p61
I0
sS'dimension'
p62
I3
sbag0
(g52
g2
Ntp63
Rp64
(dp65
g56
Nsg57
I3
sg58
I00
sg59
I1
sg60
I01
sg61
I1
sg62
I3
sbag0
(g52
g2
Ntp66
Rp67
(dp68
g56
Nsg57
I2
sg58
I00
sg59
I1
sg60
I01
sg61
I2
sg62
I3
sbag0
(g52
g2
Ntp69
Rp70
(dp71
g56
I1
sg57
I0
sg58
I01
sg59
I1
sg60
I00
sg61
I3
sg62
I3
sbag0
(g52
g2
Ntp72
Rp73
(dp74
g56
I2
sg57
I0
sg58
I01
sg59
I1
sg60
I00
sg61
I4
sg62
I3
sbag0
(g52
g2
Ntp75
Rp76
(dp77
g56
Nsg57
I0
sg58
I00
sg59
I2
sg60
I01
sg61
I5
sg62
I3
sbag0
(g52
g2
Ntp78
Rp79
(dp80
g56
I2
sg57
I0
sg58
I01
sg59
I1
sg60
I00
sg61
I6
sg62
I3
sbag0
(g52
g2
Ntp81
Rp82
(dp83
g56
I1
sg57
I0
sg58
I01
sg59
I1
sg60
I00
sg61
I7
sg62
I3
sbasS'linksList'
p84
(lp85
(lp86
I0
aI2
aI1
aa(lp87
I1
aI0
aI2
aa(lp88
I0
aI1
aI2
aasb.